(dp0
I0
S'<pad>'
p1
sI1
S'<bos>'
p2
sI2
S'<eos>'
p3
sI3
Va
p4
sI4
Vis
p5
sI5
Vthe
p6
sI6
Vman
p7
sI7
Vwoman
p8
sI8
Von
p9
sI9
Vin
p10
sI10
Vof
p11
sI11
Vare
p12
sI12
Vand
p13
sI13
Vwith
p14
sI14
Vplaying
p15
sI15
Vinto
p16
sI16
Vperson
p17
sI17
Vto
p18
sI18
Van
p19
sI19
Vtwo
p20
sI20
Vsomeone
p21
sI21
Vhis
p22
sI22
Vdog
p23
sI23
Vcat
p24
sI24
Vslicing
p25
sI25
Vwater
p26
sI26
Vboy
p27
sI27
Vgirl
p28
sI28
Vsome
p29
sI29
Vdown
p30
sI30
Vcutting
p31
sI31
Vdancing
p32
sI32
Vup
p33
sI33
Vbowl
p34
sI34
Vguitar
p35
sI35
Vriding
p36
sI36
Vbaby
p37
sI37
Vfrom
p38
sI38
Vmen
p39
sI39
Vat
p40
sI40
Vlady
p41
sI41
Veating
p42
sI42
Vwalking
p43
sI43
Vcar
p44
sI44
Vher
p45
sI45
Vmeat
p46
sI46
Voff
p47
sI47
Vout
p48
sI48
Vrunning
p49
sI49
Vonion
p50
sI50
Vpan
p51
sI51
Vpeople
p52
sI52
V's
p53
sI53
Vit
p54
sI54
Vknife
p55
sI55
Vfood
p56
sI56
Vwomen
p57
sI57
Vhorse
p58
sI58
Vball
p59
sI59
Vtalking
p60
sI60
Vsmall
p61
sI61
Vcuts
p62
sI62
Vover
p63
sI63
Vpot
p64
sI64
Vpiece
p65
sI65
Vbeing
p66
sI66
Vthrough
p67
sI67
Vsinging
p68
sI68
Vpotato
p69
sI69
Vpouring
p70
sI70
Vplays
p71
sI71
Vputting
p72
sI72
Vby
p73
sI73
Vslices
p74
sI74
Vother
p75
sI75
Vbread
p76
sI76
Varound
p77
sI77
Vpeeling
p78
sI78
Vpieces
p79
sI79
Vdoing
p80
sI80
Vshrimp
p81
sI81
Vpaper
p82
sI82
Veggs
p83
sI83
Vwhile
p84
sI84
Vmotorcycle
p85
sI85
Vstage
p86
sI86
Vsomething
p87
sI87
Vits
p88
sI88
Vanother
p89
sI89
Vcut
p90
sI90
Vfish
p91
sI91
Vmonkey
p92
sI92
Vyoung
p93
sI93
Vputs
p94
sI94
Vsitting
p95
sI95
Vlittle
p96
sI96
Vusing
p97
sI97
Vchopping
p98
sI98
Vadding
p99
sI99
Vroad
p100
sI100
Vbike
p101
sI101
Vlarge
p102
sI102
Vthree
p103
sI103
Vbox
p104
sI104
Veach
p105
sI105
Vsoccer
p106
sI106
Vpanda
p107
sI107
Vholding
p108
sI108
Vgroup
p109
sI109
Vrice
p110
sI110
Vback
p111
sI111
Vchicken
p112
sI112
Vegg
p113
sI113
Vsauce
p114
sI114
Vchef
p115
sI115
Vvegetables
p116
sI116
Vsliced
p117
sI117
Vphone
p118
sI118
Vpours
p119
sI119
Vflute
p120
sI120
Vhand
p121
sI121
Vcooking
p122
sI122
Vground
p123
sI123
Vplayed
p124
sI124
Vpuppy
p125
sI125
Vone
p126
sI126
Vwhite
p127
sI127
Vacross
p128
sI128
Vmixing
p129
sI129
Vstanding
p130
sI130
Vas
p131
sI131
Vfield
p132
sI132
Vanimal
p133
sI133
Vgarlic
p134
sI134
Voil
p135
sI135
Vkitten
p136
sI136
Vstreet
p137
sI137
Vgrass
p138
sI138
Vonions
p139
sI139
Vruns
p140
sI140
Vpizza
p141
sI141
Vfloor
p142
sI142
Vdough
p143
sI143
Vfrying
p144
sI144
Vpiano
p145
sI145
Vtheir
p146
sI146
Vstirring
p147
sI147
Vhands
p148
sI148
Vtomato
p149
sI149
Vfront
p150
sI150
Vgirls
p151
sI151
Vtogether
p152
sI152
Vhead
p153
sI153
Vbed
p154
sI154
Vthen
p155
sI155
Vgun
p156
sI156
Vshooting
p157
sI157
Vplastic
p158
sI158
Vmoving
p159
sI159
Vingredients
p160
sI160
Vjumping
p161
sI161
Vonto
p162
sI162
Vjumps
p163
sI163
Vtaking
p164
sI164
Vseasoning
p165
sI165
Vcook
p166
sI166
Vfalls
p167
sI167
Vboys
p168
sI168
Vmaking
p169
sI169
Vdance
p170
sI170
Vbeach
p171
sI171
Vpool
p172
sI172
Vbear
p173
sI173
Vrides
p174
sI174
Vseveral
p175
sI175
Vhalf
p176
sI176
Vtable
p177
sI177
Vwall
p178
sI178
Vface
p179
sI179
Vclimbing
p180
sI180
Vfighting
p181
sI181
Vcontainer
p182
sI182
Vcucumber
p183
sI183
Vbutter
p184
sI184
Vdriving
p185
sI185
Vglass
p186
sI186
Vcamera
p187
sI187
Vhe
p188
sI188
Vperforming
p189
sI189
Vlooking
p190
sI190
Vrope
p191
sI191
Vcarrot
p192
sI192
Vput
p193
sI193
Vtop
p194
sI194
Vbicycle
p195
sI195
Vred
p196
sI196
Vgreen
p197
sI197
Vmicrophone
p198
sI198
Vwooden
p199
sI199
Vcheese
p200
sI200
Vliquid
p201
sI201
Vplate
p202
sI202
Vpoured
p203
sI203
Vtoy
p204
sI204
Vfinger
p205
sI205
Vapplying
p206
sI206
Vkid
p207
sI207
Vtrying
p208
sI208
Vthem
p209
sI209
Vwalks
p210
sI210
Vside
p211
sI211
Vlicking
p212
sI212
Vplayer
p213
sI213
Valong
p214
sI214
Vtree
p215
sI215
Vcan
p216
sI216
Vhair
p217
sI217
Vpepper
p218
sI218
Vvegetable
p219
sI219
Vfalling
p220
sI220
Vswimming
p221
sI221
Vpasta
p222
sI222
Vmachine
p223
sI223
Vseated
p224
sI224
Vguy
p225
sI225
Vdanced
p226
sI226
Vraw
p227
sI227
Vfor
p228
sI228
Vchili
p229
sI229
Vexercising
p230
sI230
Vmakeup
p231
sI231
Vadded
p232
sI232
Vtail
p233
sI233
Vbag
p234
sI234
Vdrums
p235
sI235
Vsnow
p236
sI236
Vmixture
p237
sI237
Vflour
p238
sI238
Vkids
p239
sI239
Vbird
p240
sI240
Vroom
p241
sI241
Vpotatoes
p242
sI242
Vboiling
p243
sI243
Vhim
p244
sI244
Vchopped
p245
sI245
Vice
p246
sI246
Vcouple
p247
sI247
Vboat
p248
sI248
Vair
p249
sI249
Vlying
p250
sI250
Vsword
p251
sI251
Vdoes
p252
sI252
Vband
p253
sI253
Vkicking
p254
sI254
Vchildren
p255
sI255
Vpork
p256
sI256
Vspeaking
p257
sI257
Vcleaning
p258
sI258
Vshot
p259
sI259
Vbottle
p260
sI260
Vdrinking
p261
sI261
Vopen
p262
sI262
Vchild
p263
sI263
Vdogs
p264
sI264
Vcooked
p265
sI265
Vdirt
p266
sI266
Vskillet
p267
sI267
Vviolin
p268
sI268
Velephant
p269
sI269
Vplay
p270
sI270
Vboard
p271
sI271
Vpeeled
p272
sI272
Vtiger
p273
sI273
Vfootball
p274
sI274
Vfiring
p275
sI275
Vpushing
p276
sI276
Vtarget
p277
sI277
Vplacing
p278
sI278
Vwood
p279
sI279
Vchair
p280
sI280
Vslow
p281
sI281
Vtakes
p282
sI282
Vflying
p283
sI283
Vslice
p284
sI284
Vwoods
p285
sI285
Vmakes
p286
sI286
Vtricks
p287
sI287
Vcup
p288
sI288
Vtrain
p289
sI289
Vcarrying
p290
sI290
Vpeels
p291
sI291
Vbehind
p292
sI292
Vget
p293
sI293
Vrode
p294
sI294
Vstairs
p295
sI295
Vtalks
p296
sI296
Vmouth
p297
sI297
Vpolar
p298
sI298
Vcarrots
p299
sI299
Vcouch
p300
sI300
Vwatching
p301
sI301
Vdicing
p302
sI302
Vwatermelon
p303
sI303
Vmilk
p304
sI304
Voutside
p305
sI305
Vdrawing
p306
sI306
Vrock
p307
sI307
Vceiling
p308
sI308
Vgets
p309
sI309
Vgetting
p310
sI310
Vwas
p311
sI311
Vride
p312
sI312
Vblack
p313
sI313
Veats
p314
sI314
Vlion
p315
sI315
Vstick
p316
sI316
Vgoal
p317
sI317
Vhit
p318
sI318
Vzebras
p319
sI319
Vshoots
p320
sI320
Vbanana
p321
sI321
Vpulling
p322
sI322
Vfell
p323
sI323
Vwhen
p324
sI324
Vran
p325
sI325
Vhorses
p326
sI326
Vspoon
p327
sI327
Vpreparing
p328
sI328
Vwalked
p329
sI329
Vlifting
p330
sI330
Vremoving
p331
sI331
Vwearing
p332
sI332
Veye
p333
sI333
Vocean
p334
sI334
Vcartoon
p335
sI335
Vtoddler
p336
sI336
Vhot
p337
sI337
Vlaying
p338
sI338
Vafter
p339
sI339
Vthat
p340
sI340
Vcricket
p341
sI341
Vadds
p342
sI342
Vcontaining
p343
sI343
Vloris
p344
sI344
Vdish
p345
sI345
Vbasketball
p346
sI346
Vhamster
p347
sI347
Vloaf
p348
sI348
Vchops
p349
sI349
Vtofu
p350
sI350
Vslide
p351
sI351
Vdid
p352
sI352
Vbatter
p353
sI353
Vstore
p354
sI354
Vpencil
p355
sI355
Vbroccoli
p356
sI356
Vskin
p357
sI357
Vdances
p358
sI358
Vskateboard
p359
sI359
Vrolling
p360
sI360
Vjumped
p361
sI361
Vplane
p362
sI362
Vkissing
p363
sI363
Vspaghetti
p364
sI364
Vaway
p365
sI365
Vsidewalk
p366
sI366
Vcracking
p367
sI367
Vcard
p368
sI368
Vbuilding
p369
sI369
Vmirror
p370
sI370
Vsink
p371
sI371
Vtruck
p372
sI372
Voven
p373
sI373
Vscissors
p374
sI374
Vtelephone
p375
sI375
Vbreaking
p376
sI376
Vhill
p377
sI377
Vopening
p378
sI378
Vopens
p379
sI379
Vexercise
p380
sI380
Vrifle
p381
sI381
Vinside
p382
sI382
Vlaughing
p383
sI383
Vitself
p384
sI384
Vplaced
p385
sI385
Vrain
p386
sI386
Vbrown
p387
sI387
Vhedgehog
p388
sI388
Vbath
p389
sI389
Vfour
p390
sI390
Vmusic
p391
sI391
Vblender
p392
sI392
Vchop
p393
sI393
Vspreading
p394
sI394
Vwriting
p395
sI395
Vlemon
p396
sI396
Vrabbit
p397
sI397
Vhas
p398
sI398
Vdeer
p399
sI399
Vseasons
p400
sI400
Vrace
p401
sI401
Vexercises
p402
sI402
Vgame
p403
sI403
Vkeyboard
p404
sI404
Vchasing
p405
sI405
Vgoing
p406
sI406
Vsliding
p407
sI407
Vtennis
p408
sI408
Vskating
p409
sI409
Vleaves
p410
sI410
Vfat
p411
sI411
Velectric
p412
sI412
Vwrestling
p413
sI413
Vfrog
p414
sI414
Vbrush
p415
sI415
Vate
p416
sI416
Vsquirrel
p417
sI417
Vtrumpet
p418
sI418
Vfence
p419
sI419
Vmushrooms
p420
sI420
Vweights
p421
sI421
Vapple
p422
sI422
Vhitting
p423
sI423
Vvery
p424
sI424
Vpandas
p425
sI425
Vtrack
p426
sI426
Vnoodles
p427
sI427
Vpicture
p428
sI428
Vmade
p429
sI429
Vfingers
p430
sI430
Vclimbs
p431
sI431
Vcream
p432
sI432
Vjuice
p433
sI433
Vthrowing
p434
sI434
Vblock
p435
sI435
Vsprinkling
p436
sI436
Vstirs
p437
sI437
Vstrips
p438
sI438
Vbench
p439
sI439
Vbiting
p440
sI440
Vhanging
p441
sI441
Vtrampoline
p442
sI442
Vsmoking
p443
sI443
Vsugar
p444
sI444
Vhouse
p445
sI445
Vstunts
p446
sI446
Vyard
p447
sI447
Vstirred
p448
sI448
Vbeef
p449
sI449
Vbreaks
p450
sI450
Vspices
p451
sI451
Vdoor
p452
sI452
Vfire
p453
sI453
Vkitchen
p454
sI454
Vtrunk
p455
sI455
Vpushes
p456
sI456
Vscooter
p457
sI457
Vhimself
p458
sI458
Vagainst
p459
sI459
Vbody
p460
sI460
Vtowel
p461
sI461
Vsheet
p462
sI462
Vcounter
p463
sI463
Vplaces
p464
sI464
Vfruit
p465
sI465
Vtried
p466
sI466
Veggplant
p467
sI467
Vkicks
p468
sI468
Vtargets
p469
sI469
Vmixes
p470
sI470
Vwashing
p471
sI471
Vunder
p472
sI472
Vrider
p473
sI473
Vlegs
p474
sI474
Vtreadmill
p475
sI475
Vturtle
p476
sI476
Vline
p477
sI477
Vvideo
p478
sI478
Vballs
p479
sI479
Vcage
p480
sI480
Vmoves
p481
sI481
Vbig
p482
sI482
Vladies
p483
sI483
Vorange
p484
sI484
Vcake
p485
sI485
Vpulled
p486
sI486
Vbubble
p487
sI487
Vbears
p488
sI488
Vmicrowave
p489
sI489
Vabout
p490
sI490
Vpath
p491
sI491
Vpole
p492
sI492
Varm
p493
sI493
Vboiled
p494
sI494
Vsalt
p495
sI495
Vjet
p496
sI496
Vpicks
p497
sI497
Vboxing
p498
sI498
Vshowing
p499
sI499
Vtalked
p500
sI500
Vbroth
p501
sI501
Vfull
p502
sI502
Vseeds
p503
sI503
Varea
p504
sI504
Vgrill
p505
sI505
Vindividual
p506
sI506
Vfeeding
p507
sI507
Vchewing
p508
sI508
Vsang
p509
sI509
Vsand
p510
sI510
Vpushed
p511
sI511
Vremoves
p512
sI512
Vdrinks
p513
sI513
Vedge
p514
sI514
Vwalk
p515
sI515
Vbacon
p516
sI516
Vpulls
p517
sI517
Vleg
p518
sI518
Vthin
p519
sI519
Vcircles
p520
sI520
Vreading
p521
sI521
Vdrives
p522
sI522
Vracing
p523
sI523
Vfox
p524
sI524
Vtortilla
p525
sI525
Vhuge
p526
sI526
Vwindow
p527
sI527
Vcars
p528
sI528
Vjump
p529
sI529
Vshe
p530
sI530
Vhits
p531
sI531
Vnear
p532
sI532
Vinstrument
p533
sI533
Vblue
p534
sI534
Vwheel
p535
sI535
Vtook
p536
sI536
Vsong
p537
sI537
Vnext
p538
sI538
Vhigh
p539
sI539
Vsniffing
p540
sI540
Vtries
p541
sI541
Velephants
p542
sI542
Vcub
p543
sI543
Vcucumbers
p544
sI544
Vairplane
p545
sI545
Vcigarette
p546
sI546
Vmotor
p547
sI547
Vyellow
p548
sI548
Vhole
p549
sI549
Vspinning
p550
sI550
Vcrying
p551
sI551
Vbe
p552
sI552
Vpuppet
p553
sI553
Vappears
p554
sI554
Vsings
p555
sI555
Vcracks
p556
sI556
Vshopping
p557
sI557
Vdressed
p558
sI558
Vpetting
p559
sI559
Vhelicopter
p560
sI560
Vattacking
p561
sI561
Vwho
p562
sI562
Vsign
p563
sI563
Vshown
p564
sI564
Vcats
p565
sI565
Vcell
p566
sI566
Vdrops
p567
sI567
Vacoustic
p568
sI568
Vrun
p569
sI569
Vbasket
p570
sI570
Vtub
p571
sI571
Vlifts
p572
sI572
Vpineapple
p573
sI573
Vfeet
p574
sI574
Vwhich
p575
sI575
Vkneading
p576
sI576
Vgarden
p577
sI577
Vsits
p578
sI578
Vcow
p579
sI579
Vdrink
p580
sI580
Vtoward
p581
sI581
Vslowly
p582
sI582
Vpuppies
p583
sI583
Vgorilla
p584
sI584
Vshark
p585
sI585
Vcubes
p586
sI586
Vbackwards
p587
sI587
Vend
p588
sI588
Vcatch
p589
sI589
Vpotatoe
p590
sI590
Vchocolate
p591
sI591
Vsky
p592
sI592
Vmany
p593
sI593
Vpackage
p594
sI594
Vanimals
p595
sI595
Vblowing
p596
sI596
Vtrick
p597
sI597
Vpolice
p598
sI598
Vginger
p599
sI599
Vmouse
p600
sI600
Vmixed
p601
sI601
Vbarking
p602
sI602
Vbridge
p603
sI603
Vcrashes
p604
sI604
Vtomatoes
p605
sI605
Vcliff
p606
sI606
Vright
p607
sI607
Vsat
p608
sI608
Vlawn
p609
sI609
Vtv
p610
sI610
Vcoffee
p611
sI611
Vslab
p612
sI612
Vpitcher
p613
sI613
Vanimated
p614
sI614
Vbathing
p615
sI615
Vseasonings
p616
sI616
Vswinging
p617
sI617
Veat
p618
sI618
Vpaw
p619
sI619
Vmother
p620
sI620
Vattacks
p621
sI621
Vdices
p622
sI622
Vor
p623
sI623
Vguns
p624
sI624
Vstove
p625
sI625
Vpaws
p626
sI626
Vcolored
p627
sI627
Vlemur
p628
sI628
Vtowards
p629
sI629
Vuses
p630
sI630
Vcostume
p631
sI631
Vlong
p632
sI632
Vcomputer
p633
sI633
Vlike
p634
sI634
Vpowder
p635
sI635
Vslides
p636
sI636
Vhammer
p637
sI637
Voctopus
p638
sI638
Vfight
p639
sI639
Vdead
p640
sI640
Vfilled
p641
sI641
Vsoup
p642
sI642
Vhugging
p643
sI643
Vlake
p644
sI644
Vbeside
p645
sI645
Vlooks
p646
sI646
Vbadger
p647
sI647
Vhow
p648
sI648
Vpudding
p649
sI649
Vcart
p650
sI650
Vdrove
p651
sI651
Vpink
p652
sI652
Vgrating
p653
sI653
Vmotion
p654
sI654
Vperforms
p655
sI655
Vbell
p656
sI656
Vknocks
p657
sI657
Vcrowd
p658
sI658
Vtomatoe
p659
sI659
Vfive
p660
sI660
Vchased
p661
sI661
Vring
p662
sI662
Vflowers
p663
sI663
Vkarate
p664
sI664
Vasleep
p665
sI665
Vbetween
p666
sI666
Vtrees
p667
sI667
Varms
p668
sI668
Vmushroom
p669
sI669
Vrubbing
p670
sI670
Vmeowing
p671
sI671
Vmartial
p672
sI672
Vbrushing
p673
sI673
Vholds
p674
sI674
Vgot
p675
sI675
Vmetal
p676
sI676
Vteams
p677
sI677
Vwind
p678
sI678
Vpush
p679
sI679
Vsuit
p680
sI680
Vbathtub
p681
sI681
Vshotgun
p682
sI682
Vapplies
p683
sI683
Vfires
p684
sI684
Vtelevision
p685
sI685
Vheld
p686
sI686
Vlot
p687
sI687
Vsofa
p688
sI688
Vcardboard
p689
sI689
Vpicking
p690
sI690
Vmake
p691
sI691
Vtalk
p692
sI692
Veyelid
p693
sI693
Vmeasuring
p694
sI694
Vfolding
p695
sI695
Vforest
p696
sI696
Vnews
p697
sI697
Vstuck
p698
sI698
Vpeoples
p699
sI699
Vtray
p700
sI700
Vlid
p701
sI701
Vstep
p702
sI702
Vups
p703
sI703
Vwent
p704
sI704
Vbottles
p705
sI705
Vribs
p706
sI706
Vfrench
p707
sI707
Vrefrigerator
p708
sI708
Vpots
p709
sI709
Vbun
p710
sI710
Vplayers
p711
sI711
Vchickens
p712
sI712
Vfried
p713
sI713
Vleaf
p714
sI714
Vmarching
p715
sI715
Votter
p716
sI716
Vflips
p717
sI717
Vsea
p718
sI718
Vhaving
p719
sI719
Vbeating
p720
sI720
Vlanding
p721
sI721
Vdry
p722
sI722
Vtiny
p723
sI723
Vthrew
p724
sI724
Vtapping
p725
sI725
Vpair
p726
sI726
Vhard
p727
sI727
Vbunch
p728
sI728
Vmatch
p729
sI729
Vfemale
p730
sI730
Vbus
p731
sI731
Vbeer
p732
sI732
Vcubs
p733
sI733
Vroller
p734
sI734
Vsubstance
p735
sI735
Vsquare
p736
sI736
Vwatches
p737
sI737
Vparsley
p738
sI738
Vdigging
p739
sI739
Vsaucepan
p740
sI740
Vserving
p741
sI741
Vstunt
p742
sI742
Vboth
p743
sI743
Vwings
p744
sI744
Vwave
p745
sI745
Vumbrella
p746
sI746
Vshoulder
p747
sI747
Vaudience
p748
sI748
Vdeep
p749
sI749
Vkicked
p750
sI750
Vgoes
p751
sI751
Vcloves
p752
sI752
Vkind
p753
sI753
Vmowing
p754
sI754
Vcrawling
p755
sI755
Vdummy
p756
sI756
Vskiing
p757
sI757
Vtube
p758
sI758
Vherbs
p759
sI759
Vwhole
p760
sI760
Vconcrete
p761
sI761
Vindian
p762
sI762
Vpistol
p763
sI763
Vthey
p764
sI764
Vthick
p765
sI765
Vturns
p766
sI766
Vopened
p767
sI767
Vflipping
p768
sI768
Vwok
p769
sI769
Vvehicle
p770
sI770
Vbat
p771
sI771
Vfall
p772
sI772
Vchimpanzee
p773
sI773
Vbeans
p774
sI774
Vseasoned
p775
sI775
Vtowels
p776
sI776
Vcracked
p777
sI777
Vlooked
p778
sI778
Vflag
p779
sI779
Vscratching
p780
sI780
Vthrows
p781
sI781
Vballoons
p782
sI782
Vcheetah
p783
sI783
Vpush-ups
p784
sI784
Vrolled
p785
sI785
Vteam
p786
sI786
Vbite
p787
sI787
Vstuffed
p788
sI788
Vmans
p789
sI789
Vstomach
p790
sI790
Vwrapping
p791
sI791
Vspreads
p792
sI792
Vused
p793
sI793
Vkick
p794
sI794
Vonstage
p795
sI795
Vbackground
p796
sI796
Vfly
p797
sI797
Vbites
p798
sI798
Vlions
p799
sI799
Vwiping
p800
sI800
Vsalmon
p801
sI801
Vpeppers
p802
sI802
Vgiving
p803
sI803
Vteasing
p804
sI804
Vflip
p805
sI805
Vrabbits
p806
sI806
Vpig
p807
sI807
Vparrot
p808
sI808
Vluggage
p809
sI809
Vfinely
p810
sI810
Vplace
p811
sI811
Vparking
p812
sI812
Vhighway
p813
sI813
Vsqueezing
p814
sI814
Vmotorbike
p815
sI815
Vbranch
p816
sI816
Vclimbed
p817
sI817
Vpumpkins
p818
sI818
Vobject
p819
sI819
Vshadow
p820
sI820
Vcooks
p821
sI821
Vcrashing
p822
sI822
Vteacher
p823
sI823
Vwaving
p824
sI824
Vriver
p825
sI825
Vescalator
p826
sI826
Vrobots
p827
sI827
Vpracticing
p828
sI828
Vsnake
p829
sI829
Vscene
p830
sI830
Vpainting
p831
sI831
Vgiraffe
p832
sI832
Vforth
p833
sI833
Vapplied
p834
sI834
Vahead
p835
sI835
Vchopsticks
p836
sI836
Vclose
p837
sI837
Vrolls
p838
sI838
Vsurface
p839
sI839
Vcall
p840
sI840
Vbouncing
p841
sI841
Vchess
p842
sI842
Vsticks
p843
sI843
Vmat
p844
sI844
Vsleeping
p845
sI845
Vgrabs
p846
sI846
Vhamburger
p847
sI847
Vpark
p848
sI848
Vmountain
p849
sI849
Vdropping
p850
sI850
Vpet
p851
sI851
Vclove
p852
sI852
Vrow
p853
sI853
Vstands
p854
sI854
Vbaseball
p855
sI855
Vseafood
p856
sI856
Vlighter
p857
sI857
Vpenguins
p858
sI858
Vdriver
p859
sI859
Vdriven
p860
sI860
Vall
p861
sI861
Vperformed
p862
sI862
Vreporter
p863
sI863
Vwine
p864
sI864
Vhad
p865
sI865
Vtricycle
p866
sI866
Vcity
p867
sI867
Vburning
p868
sI868
Vsmiling
p869
sI869
Vrack
p870
sI870
Vthereafter
p871
sI871
Vwhisk
p872
sI872
Vdo
p873
sI873
Vbunny
p874
sI874
Vguitars
p875
sI875
Vsweeping
p876
sI876
Vcircle
p877
sI877
Vempty
p878
sI878
Vscrambled
p879
sI879
Vcoating
p880
sI880
Vkettle
p881
sI881
Vhuman
p882
sI882
Vfloating
p883
sI883
Veyes
p884
sI884
Vferret
p885
sI885
Vbit
p886
sI886
Vdolphin
p887
sI887
Vbullets
p888
sI888
Vingrediants
p889
sI889
Vfan
p890
sI890
Vreflection
p891
sI891
Vcloth
p892
sI892
Vfries
p893
sI893
Vduck
p894
sI894
Vbottom
p895
sI895
Vroll
p896
sI896
Vknocked
p897
sI897
Vrapidly
p898
sI898
Vheads
p899
sI899
Vguinea
p900
sI900
Vspins
p901
sI901
Vglasses
p902
sI902
Vwire
p903
sI903
Vmath
p904
sI904
Votters
p905
sI905
Vperform
p906
sI906
Vgoose
p907
sI907
Vattacked
p908
sI908
Vmoved
p909
sI909
Vskull
p910
sI910
Vmotorcyclist
p911
sI911
Vlettuce
p912
sI912
Vbalance
p913
sI913
Vwaterfall
p914
sI914
Vdifferent
p915
sI915
Voutdoor
p916
sI916
Vboards
p917
sI917
Vgave
p918
sI918
Vtoad
p919
sI919
Vkittens
p920
sI920
Vgoat
p921
sI921
Vfolds
p922
sI922
Vvan
p923
sI923
Vshaving
p924
sI924
Vdipping
p925
sI925
Vold
p926
sI926
Vaxe
p927
sI927
Vlicks
p928
sI928
Vlengthwise
p929
sI929
Vset
p930
sI930
Vskateboarding
p931
sI931
Vcereal
p932
sI932
Vspread
p933
sI933
Vnight
p934
sI934
Vpumpkin
p935
sI935
Vcomes
p936
sI936
Vbeaver
p937
sI937
Vwet
p938
sI938
Vlook
p939
sI939
Vpants
p940
sI940
Vcoconut
p941
sI941
Vround
p942
sI942
Vpawing
p943
sI943
Vdolls
p944
sI944
Vpen
p945
sI945
Vdragging
p946
sI946
Vpunching
p947
sI947
Vrat
p948
sI948
Vofficer
p949
sI949
Vcouples
p950
sI950
Vweight
p951
sI951
Vhotel
p952
sI952
Vflight
p953
sI953
Vrange
p954
sI954
Vpeeler
p955
sI955
Vrepeatedly
p956
sI956
Vdraining
p957
sI957
Vworking
p958
sI958
Vartist
p959
sI959
Vcanoe
p960
sI960
Vyoga
p961
sI961
Vsides
p962
sI962
Vblocks
p963
sI963
Vcabbage
p964
sI964
Vsmoke
p965
sI965
Vcaught
p966
sI966
Vlanguage
p967
sI967
Vpeas
p968
sI968
Vcows
p969
sI969
Vfoot
p970
sI970
Vwaking
p971
sI971
Vmango
p972
sI972
Vdark
p973
sI973
Vwhisked
p974
sI974
Vpizzas
p975
sI975
Vshoe
p976
sI976
Vteenage
p977
sI977
Vtouching
p978
sI978
Vliving
p979
sI979
Varts
p980
sI980
Vshredding
p981
sI981
Vstir
p982
sI982
Vdragon
p983
sI983
Vkite
p984
sI984
Vroutine
p985
sI985
Vfought
p986
sI986
Vsharpening
p987
sI987
Vspeaks
p988
sI988
Vattendant
p989
sI989
Vsloth
p990
sI990
Vmarinade
p991
sI991
Vorangutan
p992
sI992
Vboot
p993
sI993
Vshredded
p994
sI994
Vhat
p995
sI995
Vpassenger
p996
sI996
Vbuttered
p997
sI997
Vbowling
p998
sI998
Vwaves
p999
sI999
Vpaddling
p1000
sI1000
Vshrimps
p1001
sI1001
Vdemonstrating
p1002
sI1002
Vscooping
p1003
sI1003
Vstaring
p1004
sI1004
Vlifted
p1005
sI1005
Vdraws
p1006
sI1006
Vbuttering
p1007
sI1007
Vpassing
p1008
sI1008
Vrear
p1009
sI1009
Vthrow
p1010
sI1010
Vmannequin
p1011
sI1011
Vcarpet
p1012
sI1012
Vsausage
p1013
sI1013
Vferrets
p1014
sI1014
Vsprinkles
p1015
sI1015
Vsewing
p1016
sI1016
Vsunflower
p1017
sI1017
Vcharacter
p1018
sI1018
Vstring
p1019
sI1019
Vguys
p1020
sI1020
Vwere
p1021
sI1021
Vnewspaper
p1022
sI1022
Vwipes
p1023
sI1023
Vfoxes
p1024
sI1024
Vgiant
p1025
sI1025
Vrestaurant
p1026
sI1026
Vpatient
p1027
sI1027
Vbulldog
p1028
sI1028
Vwakes
p1029
sI1029
Vmix
p1030
sI1030
Vmuddy
p1031
sI1031
Vgate
p1032
sI1032
Vrinsing
p1033
sI1033
Vsunglasses
p1034
sI1034
Vrowing
p1035
sI1035
Vautomatic
p1036
sI1036
Vmud
p1037
sI1037
Vpyramid
p1038
sI1038
Vmoose
p1039
sI1039
Vsprinkled
p1040
sI1040
Vapart
p1041
sI1041
Vwagging
p1042
sI1042
Vdiced
p1043
sI1043
Vsandwich
p1044
sI1044
Vexplodes
p1045
sI1045
Vskewers
p1046
sI1046
Vlarger
p1047
sI1047
Vflew
p1048
sI1048
Vcube
p1049
sI1049
Vcloset
p1050
sI1050
Vbelow
p1051
sI1051
Vdrying
p1052
sI1052
Vdumps
p1053
sI1053
Vshower
p1054
sI1054
Vblew
p1055
sI1055
Vsteps
p1056
sI1056
Vcrocodile
p1057
sI1057
Vdrive
p1058
sI1058
Vdives
p1059
sI1059
Vsumo
p1060
sI1060
Vimage
p1061
sI1061
Vpast
p1062
sI1062
Vturning
p1063
sI1063
Vmale
p1064
sI1064
Vpatio
p1065
sI1065
Vbarrel
p1066
sI1066
Vblows
p1067
sI1067
Vrocks
p1068
sI1068
Vdumping
p1069
sI1069
Vcameras
p1070
sI1070
Vswims
p1071
sI1071
Vgoalie
p1072
sI1072
Vway
p1073
sI1073
Vhall
p1074
sI1074
Vshows
p1075
sI1075
Vrind
p1076
sI1076
Vship
p1077
sI1077
Vgrated
p1078
sI1078
Vtracks
p1079
sI1079
Vsoldier
p1080
sI1080
Vtoys
p1081
sI1081
Vcupcake
p1082
sI1082
Vcatches
p1083
sI1083
Vpicked
p1084
sI1084
Vwhisking
p1085
sI1085
Vsprinkler
p1086
sI1086
Vshoulders
p1087
sI1087
Vbaking
p1088
sI1088
Vclothes
p1089
sI1089
Vnet
p1090
sI1090
Veyebrows
p1091
sI1091
Vroof
p1092
sI1092
Vbefore
p1093
sI1093
Vstarts
p1094
sI1094
Vbar
p1095
sI1095
Vsushi
p1096
sI1096
Vleft
p1097
sI1097
Vskateboarder
p1098
sI1098
Vjacket
p1099
sI1099
Vdrawer
p1100
sI1100
Vpins
p1101
sI1101
Vheadphones
p1102
sI1102
Vcalendar
p1103
sI1103
Vsame
p1104
sI1104
Vstarting
p1105
sI1105
Vcoming
p1106
sI1106
Vharp
p1107
sI1107
Vcarefully
p1108
sI1108
Vshape
p1109
sI1109
Vledge
p1110
sI1110
Vwashes
p1111
sI1111
Vchewed
p1112
sI1112
Vrhino
p1113
sI1113
Vcowboy
p1114
sI1114
Vclouds
p1115
sI1115
Vdried
p1116
sI1116
Vmicrophones
p1117
sI1117
Vstatue
p1118
sI1118
Vnails
p1119
sI1119
Vwhat
p1120
sI1120
Vshore
p1121
sI1121
Vbrick
p1122
sI1122
Vvanilla
p1123
sI1123
Vhitchhiking
p1124
sI1124
Vblade
p1125
sI1125
Vlocation
p1126
sI1126
Vpavement
p1127
sI1127
Vsurfing
p1128
sI1128
Vstone
p1129
sI1129
Vpull
p1130
sI1130
Vplant
p1131
sI1131
Vcastle
p1132
sI1132
Vnumber
p1133
sI1133
Vbreading
p1134
sI1134
Vland
p1135
sI1135
Vspatula
p1136
sI1136
Vsteel
p1137
sI1137
Vbiker
p1138
sI1138
Vbucket
p1139
sI1139
Vdoorway
p1140
sI1140
Vcosmetics
p1141
sI1141
Vkept
p1142
sI1142
Vpeel
p1143
sI1143
Vscores
p1144
sI1144
Vgum
p1145
sI1145
Vpong
p1146
sI1146
Vstaircase
p1147
sI1147
Vequipment
p1148
sI1148
Vwedges
p1149
sI1149
Vpancake
p1150
sI1150
Vshake
p1151
sI1151
Vcontrol
p1152
sI1152
Vshaking
p1153
sI1153
Vparked
p1154
sI1154
Vspeaker
p1155
sI1155
Vear
p1156
sI1156
Vroot
p1157
sI1157
Vpogo
p1158
sI1158
Vping
p1159
sI1159
Vpepperoni
p1160
sI1160
Vfast
p1161
sI1161
Vsuspended
p1162
sI1162
Vpacifier
p1163
sI1163
Vnose
p1164
sI1164
Vlands
p1165
sI1165
Vtripod
p1166
sI1166
Vremote
p1167
sI1167
Vraft
p1168
sI1168
Vsynchronized
p1169
sI1169
Vzucchini
p1170
sI1170
Vcostumes
p1171
sI1171
Vraccoons
p1172
sI1172
Vsauteing
p1173
sI1173
Veyebrow
p1174
sI1174
Vreporting
p1175
sI1175
Vbug
p1176
sI1176
Vupside
p1177
sI1177
Vsubmarine
p1178
sI1178
Vfurry
p1179
sI1179
Vchristmas
p1180
sI1180
Veagle
p1181
sI1181
Vtornado
p1182
sI1182
Vpersons
p1183
sI1183
Vstops
p1184
sI1184
Vinstruments
p1185
sI1185
Vtoilet
p1186
sI1186
Vsaxophone
p1187
sI1187
Vfallen
p1188
sI1188
Vkangaroo
p1189
sI1189
Vseaweed
p1190
sI1190
Vski
p1191
sI1191
Vpaste
p1192
sI1192
Vcarries
p1193
sI1193
Vleaps
p1194
sI1194
Vsoy
p1195
sI1195
Vtime
p1196
sI1196
Vchain
p1197
sI1197
Vcrushing
p1198
sI1198
Vwheelie
p1199
sI1199
Vdiving
p1200
sI1200
Vpower
p1201
sI1201
Vmammal
p1202
sI1202
Vsock
p1203
sI1203
Verasing
p1204
sI1204
Vmove
p1205
sI1205
Vlog
p1206
sI1206
Vlogs
p1207
sI1207
Vlicked
p1208
sI1208
Vexercised
p1209
sI1209
Vsteak
p1210
sI1210
Vconvertible
p1211
sI1211
Vcone
p1212
sI1212
Vskeleton
p1213
sI1213
Vtrainer
p1214
sI1214
Vchunks
p1215
sI1215
Vbroke
p1216
sI1216
Vamerican
p1217
sI1217
Volder
p1218
sI1218
Vstem
p1219
sI1219
Vsalad
p1220
sI1220
Veyeshadow
p1221
sI1221
Vscrambles
p1222
sI1222
Vcleans
p1223
sI1223
Vportion
p1224
sI1224
Vbaboon
p1225
sI1225
Vfore
p1226
sI1226
Vdrags
p1227
sI1227
Vscrambling
p1228
sI1228
Vunderwear
p1229
sI1229
Vwaiter
p1230
sI1230
Vknives
p1231
sI1231
Vkeyboards
p1232
sI1232
Vbags
p1233
sI1233
Vserves
p1234
sI1234
Voperating
p1235
sI1235
Vstacking
p1236
sI1236
Vcrawls
p1237
sI1237
Vflower
p1238
sI1238
Vdoctors
p1239
sI1239
Vdownhill
p1240
sI1240
Vstroller
p1241
sI1241
Vthemselves
p1242
sI1242
Vliner
p1243
sI1243
Vlined
p1244
sI1244
Vchases
p1245
sI1245
Vbeam
p1246
sI1246
Vsausages
p1247
sI1247
Vrectangular
p1248
sI1248
Vrevolver
p1249
sI1249
Vjogging
p1250
sI1250
Vtimes
p1251
sI1251
Vwrapped
p1252
sI1252
Vquickly
p1253
sI1253
Vswing
p1254
sI1254
Vcards
p1255
sI1255
Vslope
p1256
sI1256
Vhind
p1257
sI1257
Vtea
p1258
sI1258
Vlighting
p1259
sI1259
Vcookie
p1260
sI1260
Vthrown
p1261
sI1261
Vsnowboarding
p1262
sI1262
Vtraditional
p1263
sI1263
Vvarious
p1264
sI1264
Vrocking
p1265
sI1265
Vfrozen
p1266
sI1266
Vshirt
p1267
sI1267
Vpickle
p1268
sI1268
Vaardvark
p1269
sI1269
Vweather
p1270
sI1270
Vnoose
p1271
sI1271
Vdominoes
p1272
sI1272
Vhandcuffs
p1273
sI1273
Vcame
p1274
sI1274
Vyogurt
p1275
sI1275
Vtoaster
p1276
sI1276
V''
p1277
sI1277
Vheadset
p1278
sI1278
Vscratched
p1279
sI1279
Vthumb
p1280
sI1280
Vflipped
p1281
sI1281
Vlobster
p1282
sI1282
Vmeal
p1283
sI1283
Vtight
p1284
sI1284
Vhunting
p1285
sI1285
Vpick
p1286
sI1286
Vdress
p1287
sI1287
Vdragged
p1288
sI1288
Vsmashing
p1289
sI1289
Vt-shirt
p1290
sI1290
Vdrill
p1291
sI1291
Vkiss
p1292
sI1292
Vjar
p1293
sI1293
Vrunway
p1294
sI1294
Vgarage
p1295
sI1295
Vskipping
p1296
sI1296
Vhopping
p1297
sI1297
Vfired
p1298
sI1298
Vstriking
p1299
sI1299
Vonly
p1300
sI1300
Vspeed
p1301
sI1301
Vstools
p1302
sI1302
Vwrestlers
p1303
sI1303
Vclear
p1304
sI1304
Vhallway
p1305
sI1305
Vlips
p1306
sI1306
Vhelicopters
p1307
sI1307
Vfry
p1308
sI1308
Vjackal
p1309
sI1309
Vvase
p1310
sI1310
Vlights
p1311
sI1311
Vpancakes
p1312
sI1312
Vdrew
p1313
sI1313
Vgasoline
p1314
sI1314
Vtentacle
p1315
sI1315
Vfolded
p1316
sI1316
Vfolder
p1317
sI1317
Vfed
p1318
sI1318
Vchews
p1319
sI1319
Vstretcher
p1320
sI1320
Vdipped
p1321
sI1321
Vtrapeze
p1322
sI1322
Vstyling
p1323
sI1323
Vspice
p1324
sI1324
Vbrushes
p1325
sI1325
Vfur
p1326
sI1326
Vkeys
p1327
sI1327
Vtap
p1328
sI1328
Vtrail
p1329
sI1329
Vtearing
p1330
sI1330
Vsets
p1331
sI1331
Vcoaster
p1332
sI1332
Vnail
p1333
sI1333
Vleafy
p1334
sI1334
Vpops
p1335
sI1335
Vmodel
p1336
sI1336
Vstand
p1337
sI1337
Vthere
p1338
sI1338
Vflies
p1339
sI1339
Vsmaller
p1340
sI1340
Vhurdles
p1341
sI1341
Vnecklace
p1342
sI1342
Vcovered
p1343
sI1343
Vconversation
p1344
sI1344
Vshallow
p1345
sI1345
Vkisses
p1346
sI1346
Vfishing
p1347
sI1347
Vcatching
p1348
sI1348
Vbabies
p1349
sI1349
Vsmelling
p1350
sI1350
Vwolves
p1351
sI1351
Vrunners
p1352
sI1352
Vtraining
p1353
sI1353
Vtyping
p1354
sI1354
Vcoats
p1355
sI1355
Vscreen
p1356
sI1356
Vboar
p1357
sI1357
Vcreature
p1358
sI1358
Vreporters
p1359
sI1359
Vraced
p1360
sI1360
Vrobin
p1361
sI1361
Vpecking
p1362
sI1362
Vpalm
p1363
sI1363
Vgreat
p1364
sI1364
Vslid
p1365
sI1365
Vbikes
p1366
sI1366
Vpacket
p1367
sI1367
Vdrum
p1368
sI1368
Vdrank
p1369
sI1369
Vchalkboard
p1370
sI1370
Vhissing
p1371
sI1371
Vcarton
p1372
sI1372
Vfeeds
p1373
sI1373
Vcontents
p1374
sI1374
Vspace
p1375
sI1375
Vchecked
p1376
sI1376
Vconcert
p1377
sI1377
Vtaxi
p1378
sI1378
Vleek
p1379
sI1379
Vheavy
p1380
sI1380
Vcleaver
p1381
sI1381
Vantenna
p1382
sI1382
Vgymnast
p1383
sI1383
Varena
p1384
sI1384
Vsurrounded
p1385
sI1385
Vgrocery
p1386
sI1386
Vmobile
p1387
sI1387
Vpictures
p1388
sI1388
Vreads
p1389
sI1389
Vstructure
p1390
sI1390
Vgo
p1391
sI1391
Vcrossing
p1392
sI1392
Vherself
p1393
sI1393
Vneck
p1394
sI1394
Vhome
p1395
sI1395
Vkissed
p1396
sI1396
Vbarks
p1397
sI1397
Vadult
p1398
sI1398
Vdeck
p1399
sI1399
Venclosure
p1400
sI1400
Vdistance
p1401
sI1401
Vcans
p1402
sI1402
Vbelly
p1403
sI1403
Velderly
p1404
sI1404
Vbatman
p1405
sI1405
Vsheets
p1406
sI1406
Vtrotted
p1407
sI1407
Vchecks
p1408
sI1408
Vserved
p1409
sI1409
Vmixer
p1410
sI1410
Vpotatos
p1411
sI1411
Vcups
p1412
sI1412
Vfine
p1413
sI1413
Vleopard
p1414
sI1414
Vothers
p1415
sI1415
Vclosing
p1416
sI1416
Vpopping
p1417
sI1417
Vbeak
p1418
sI1418
Vcenter
p1419
sI1419
Vthinly
p1420
sI1420
Vtrolley
p1421
sI1421
Vfilling
p1422
sI1422
Vwashed
p1423
sI1423
Vcharacters
p1424
sI1424
Vgazelle
p1425
sI1425
Vgames
p1426
sI1426
Vbathroom
p1427
sI1427
Vpapaya
p1428
sI1428
Vmelting
p1429
sI1429
Vwombat
p1430
sI1430
Vstacks
p1431
sI1431
Vducklings
p1432
sI1432
Vgives
p1433
sI1433
Vsuperman
p1434
sI1434
Vpicnic
p1435
sI1435
Vbouillon
p1436
sI1436
Vgrabbing
p1437
sI1437
Voutdoors
p1438
sI1438
Vquail
p1439
sI1439
Vsections
p1440
sI1440
Vclub
p1441
sI1441
Vfew
p1442
sI1442
Vfiddle
p1443
sI1443
Vshell
p1444
sI1444
Vspun
p1445
sI1445
Vwild
p1446
sI1446
Vloses
p1447
sI1447
Vtwirling
p1448
sI1448
Vscreaming
p1449
sI1449
Vwooded
p1450
sI1450
Vherd
p1451
sI1451
Vgolden
p1452
sI1452
Vtouches
p1453
sI1453
Vrings
p1454
sI1454
Vsplit
p1455
sI1455
Vforming
p1456
sI1456
Vplucking
p1457
sI1457
Vfollowing
p1458
sI1458
Vso
p1459
sI1459
Vcourse
p1460
sI1460
Vmatches
p1461
sI1461
Vdrilling
p1462
sI1462
Vspooning
p1463
sI1463
Vgrilling
p1464
sI1464
Vwhere
p1465
sI1465
Vvacuum
p1466
sI1466
Vwraps
p1467
sI1467
Vsesame
p1468
sI1468
Vbacking
p1469
sI1469
Vducks
p1470
sI1470
Vskateboards
p1471
sI1471
Vwhiteboard
p1472
sI1472
Vindex
p1473
sI1473
Vfaucet
p1474
sI1474
Vnibbling
p1475
sI1475
Vdock
p1476
sI1476
Vroomba
p1477
sI1477
Vemail
p1478
sI1478
Vramp
p1479
sI1479
Vmotor-cycle
p1480
sI1480
Vcombing
p1481
sI1481
Vchecking
p1482
sI1482
Vbeneath
p1483
sI1483
Vtossed
p1484
sI1484
Vpost
p1485
sI1485
Vstired
p1486
sI1486
Vhorseback
p1487
sI1487
Vstair
p1488
sI1488
Vleather
p1489
sI1489
Vkneads
p1490
sI1490
Vwallaby
p1491
sI1491
Vrubs
p1492
sI1492
Vsucking
p1493
sI1493
Vdancers
p1494
sI1494
Vgrates
p1495
sI1495
Vsmashes
p1496
sI1496
Vpointing
p1497
sI1497
Vstorm
p1498
sI1498
Vgrey
p1499
sI1499
Vtongs
p1500
sI1500
Vclean
p1501
sI1501
Vpack
p1502
sI1502
Vdips
p1503
sI1503
Vsoldiers
p1504
sI1504
Vuncooked
p1505
sI1505
Vwatering
p1506
sI1506
Vtype
p1507
sI1507
Vlaughs
p1508
sI1508
Vstop
p1509
sI1509
Vpracticed
p1510
sI1510
Vcarts
p1511
sI1511
Vfork
p1512
sI1512
Volive
p1513
sI1513
Vpathway
p1514
sI1514
Vtall
p1515
sI1515
Vstraightening
p1516
sI1516
Vassault
p1517
sI1517
Vmiddle
p1518
sI1518
Vbuggy
p1519
sI1519
Vnarrow
p1520
sI1520
Vcostumed
p1521
sI1521
Vprepares
p1522
sI1522
Vsing
p1523
sI1523
Vclimb
p1524
sI1524
Vgear
p1525
sI1525
Vmascara
p1526
sI1526
Vattempting
p1527
sI1527
Vstatues
p1528
sI1528
Vshuttle
p1529
sI1529
Vsoft
p1530
sI1530
Vstares
p1531
sI1531
Vjungle
p1532
sI1532
Vsoda
p1533
sI1533
Vbrushed
p1534
sI1534
Vwatch
p1535
sI1535
Vtwice
p1536
sI1536
Vrodent
p1537
sI1537
Vmultiple
p1538
sI1538
Vskewered
p1539
sI1539
Vfloured
p1540
sI1540
Veyeliner
p1541
sI1541
Vswords
p1542
sI1542
Vstrange
p1543
sI1543
Vmachete
p1544
sI1544
Vmake-up
p1545
sI1545
Vclown
p1546
sI1546
Vvolleyballs
p1547
sI1547
Vwrestle
p1548
sI1548
Vtraveling
p1549
sI1549
Vsomeoen
p1550
sI1550
Vclass
p1551
sI1551
Vpipe
p1552
sI1552
Vlobby
p1553
sI1553
Vpods
p1554
sI1554
Vlori
p1555
sI1555
Vtying
p1556
sI1556
Vcougar
p1557
sI1557
Vgreens
p1558
sI1558
Vpatch
p1559
sI1559
Vgrazing
p1560
sI1560
Valice
p1561
sI1561
Vlays
p1562
sI1562
Vbonfire
p1563
sI1563
Vangry
p1564
sI1564
Vbutterfly
p1565
sI1565
Vlotus
p1566
sI1566
Vhockey
p1567
sI1567
Vsqueezes
p1568
sI1568
Vbricks
p1569
sI1569
Vclay
p1570
sI1570
Vlegged
p1571
sI1571
Vsomeones
p1572
sI1572
Vballerina
p1573
sI1573
Vcover
p1574
sI1574
Vwrites
p1575
sI1575
Vchurch
p1576
sI1576
Vresting
p1577
sI1577
Vstraight
p1578
sI1578
Vflooded
p1579
sI1579
Vtasting
p1580
sI1580
Vus
p1581
sI1581
Vkey-board
p1582
sI1582
Vpigs
p1583
sI1583
Vprawns
p1584
sI1584
Vcoriander
p1585
sI1585
Vsergeant
p1586
sI1586
Vrobot
p1587
sI1587
Vcd
p1588
sI1588
Vtosses
p1589
sI1589
Vlizard
p1590
sI1590
Valligator
p1591
sI1591
Vprawn
p1592
sI1592
Vlollipop
p1593
sI1593
Vcop
p1594
sI1594
Vmusical
p1595
sI1595
Vphoto
p1596
sI1596
Vnuzzled
p1597
sI1597
Vwad
p1598
sI1598
Vdying
p1599
sI1599
Vgrape
p1600
sI1600
Vcold
p1601
sI1601
Vtilling
p1602
sI1602
Vsnowboarder
p1603
sI1603
Vpodium
p1604
sI1604
Vstreets
p1605
sI1605
Vdribbling
p1606
sI1606
Vpeanuts
p1607
sI1607
Vbase
p1608
sI1608
Vstation
p1609
sI1609
Vduring
p1610
sI1610
Vlobsters
p1611
sI1611
Vmissile
p1612
sI1612
Vcircular
p1613
sI1613
Vshowering
p1614
sI1614
Vwading
p1615
sI1615
Vankle
p1616
sI1616
Vpull-ups
p1617
sI1617
Vdemonstrated
p1618
sI1618
Vbeats
p1619
sI1619
Vfoil
p1620
sI1620
Vorchestra
p1621
sI1621
Vloaded
p1622
sI1622
Vtrimming
p1623
sI1623
Vopposite
p1624
sI1624
Vsailing
p1625
sI1625
Vgrassland
p1626
sI1626
Vshow
p1627
sI1627
Vrugby
p1628
sI1628
Vsquash
p1629
sI1629
Vwake
p1630
sI1630
Vbeachside
p1631
sI1631
Vstrip
p1632
sI1632
Vdrills
p1633
sI1633
Vagain
p1634
sI1634
Vtortoise
p1635
sI1635
Vstretching
p1636
sI1636
Vforward
p1637
sI1637
Vprepared
p1638
sI1638
Vdesert
p1639
sI1639
Vbones
p1640
sI1640
Vhugged
p1641
sI1641
Vflashes
p1642
sI1642
Vpatting
p1643
sI1643
Vunderwater
p1644
sI1644
Vbut
p1645
sI1645
Vmonkeys
p1646
sI1646
Vschool
p1647
sI1647
Vstudio
p1648
sI1648
Vstraw
p1649
sI1649
Vlaid
p1650
sI1650
Vtoo
p1651
sI1651
Vprone
p1652
sI1652
Vlaughed
p1653
sI1653
Vearth
p1654
sI1654
Vassembling
p1655
sI1655
Vlaptop
p1656
sI1656
Vhung
p1657
sI1657
Vsetting
p1658
sI1658
Vbullet
p1659
sI1659
Vrod
p1660
sI1660
Vcinnamon
p1661
sI1661
Vcrashed
p1662
sI1662
Vplatform
p1663
sI1663
Valuminum
p1664
sI1664
Vstroking
p1665
sI1665
Vcase
p1666
sI1666
Velectrocuted
p1667
sI1667
Vkneeling
p1668
sI1668
Vtin
p1669
sI1669
Vshort
p1670
sI1670
Vhunter
p1671
sI1671
Vbigger
p1672
sI1672
Vhangs
p1673
sI1673
Vcleaned
p1674
sI1674
Vnumerous
p1675
sI1675
Vwoke
p1676
sI1676
Vreferee
p1677
sI1677
Vstrumming
p1678
sI1678
Vbacks
p1679
sI1679
Vwaiting
p1680
sI1680
Vscales
p1681
sI1681
Vwalruses
p1682
sI1682
Vape
p1683
sI1683
Vsit
p1684
sI1684
Vhandgun
p1685
sI1685
Vcarried
p1686
sI1686
Vbook
p1687
sI1687
Vpooped
p1688
sI1688
Vdiagram
p1689
sI1689
Vtypes
p1690
sI1690
Vkeeps
p1691
sI1691
Vbowls
p1692
sI1692
Vracers
p1693
sI1693
Vtrashcan
p1694
sI1694
V``
p1695
sI1695
Vpealing
p1696
sI1696
Vkomodo
p1697
sI1697
Vcantaloupe
p1698
sI1698
Vleaping
p1699
sI1699
Vbackyard
p1700
sI1700
Vlipstick
p1701
sI1701
Vboarding
p1702
sI1702
Vsilencer
p1703
sI1703
Vchase
p1704
sI1704
Vchest
p1705
sI1705
Venclosed
p1706
sI1706
Vdishes
p1707
sI1707
Vsoap
p1708
sI1708
Vdevice
p1709
sI1709
Vdust
p1710
sI1710
Vdesk
p1711
sI1711
Vplanting
p1712
sI1712
Vitems
p1713
sI1713
Vlap
p1714
sI1714
Vavocado
p1715
sI1715
Vrocky
p1716
sI1716
Vbraiding
p1717
sI1717
Vcovering
p1718
sI1718
Vhandful
p1719
sI1719
Vpoms
p1720
sI1720
Vpurple
p1721
sI1721
Vlive
p1722
sI1722
Vcab
p1723
sI1723
Vgrassy
p1724
sI1724
Vpuddle
p1725
sI1725
Vattached
p1726
sI1726
Vinflatable
p1727
sI1727
Vtossing
p1728
sI1728
Vread
p1729
sI1729
Vwolf
p1730
sI1730
Vprocessor
p1731
sI1731
Vstart
p1732
sI1732
Voxen
p1733
sI1733
Vstorage
p1734
sI1734
Vbalancing
p1735
sI1735
Vknocking
p1736
sI1736
Vdune
p1737
sI1737
Vselling
p1738
sI1738
Vweapon
p1739
sI1739
Vlit
p1740
sI1740
Voxi
p1741
sI1741
Vpractice
p1742
sI1742
Vvessel
p1743
sI1743
Vquarters
p1744
sI1744
Vparade
p1745
sI1745
Vukulele
p1746
sI1746
Vwhisks
p1747
sI1747
Vseparating
p1748
sI1748
Vcoated
p1749
sI1749
Vswan
p1750
sI1750
Vteaching
p1751
sI1751
Vbegins
p1752
sI1752
Vseed
p1753
sI1753
Vscraping
p1754
sI1754
Vlionel
p1755
sI1755
Vdunking
p1756
sI1756
Vyelling
p1757
sI1757
Vcones
p1758
sI1758
Vcovers
p1759
sI1759
Vmanages
p1760
sI1760
Vbattered
p1761
sI1761
Vfirst
p1762
sI1762
Vfills
p1763
sI1763
Vseat
p1764
sI1764
Vstacked
p1765
sI1765
Vairport
p1766
sI1766
Vtown
p1767
sI1767
Vdribbles
p1768
sI1768
Vpart
p1769
sI1769
Vnewborn
p1770
sI1770
Vfollows
p1771
sI1771
V&
p1772
sI1772
Vpacking
p1773
sI1773
Vobjects
p1774
sI1774
Vlimb
p1775
sI1775
Vapproached
p1776
sI1776
Vdryer
p1777
sI1777
Vpartially
p1778
sI1778
Vbundle
p1779
sI1779
Vswings
p1780
sI1780
Vcrushed
p1781
sI1781
Vtool
p1782
sI1782
Vantifreeze
p1783
sI1783
Vrounds
p1784
sI1784
Vremoved
p1785
sI1785
Vmeows
p1786
sI1786
Vhammers
p1787
sI1787
Vzebra
p1788
sI1788
Vturn
p1789
sI1789
Vbatting
p1790
sI1790
Vsilhouette
p1791
sI1791
Vsimmering
p1792
sI1792
Vpom
p1793
sI1793
Vwithout
p1794
sI1794
Vtip
p1795
sI1795
Vrubber
p1796
sI1796
Vcrust
p1797
sI1797
Vflat
p1798
sI1798
Vspeeding
p1799
sI1799
Vstyle
p1800
sI1800
Vlemurs
p1801
sI1801
Vpasses
p1802
sI1802
Vleading
p1803
sI1803
Vsweet
p1804
sI1804
Vcrash
p1805
sI1805
Vcloses
p1806
sI1806
Vhammering
p1807
sI1807
Vunderneath
p1808
sI1808
Vspiral
p1809
sI1809
Vrailing
p1810
sI1810
Vsecond
p1811
sI1811
Vbrought
p1812
sI1812
Vspoke
p1813
sI1813
Vfoundation
p1814
sI1814
Vroni
p1815
sI1815
Vletter
p1816
sI1816
Vbush
p1817
sI1817
Vobese
p1818
sI1818
Vworker
p1819
sI1819
Vokra
p1820
sI1820
Vshakes
p1821
sI1821
Vjuicing
p1822
sI1822
Vfabric
p1823
sI1823
Vgreenery
p1824
sI1824
Vsniffed
p1825
sI1825
Vskate
p1826
sI1826
Vvet
p1827
sI1827
Vicing
p1828
sI1828
Vlimbs
p1829
sI1829
Vsquares
p1830
sI1830
Vturned
p1831
sI1831
Vbicyclist
p1832
sI1832
Vsuitcases
p1833
sI1833
Vteacup
p1834
sI1834
Vtwig
p1835
sI1835
Vtrains
p1836
sI1836
Vact
p1837
sI1837
Vgurney
p1838
sI1838
Vwatched
p1839
sI1839
Vnori
p1840
sI1840
Vfollowed
p1841
sI1841
Vhugs
p1842
sI1842
Vroots
p1843
sI1843
Vscoops
p1844
sI1844
Vplowing
p1845
sI1845
Vfights
p1846
sI1846
Vknees
p1847
sI1847
Vscallop
p1848
sI1848
Vknitting
p1849
sI1849
Vinspects
p1850
sI1850
Vfixing
p1851
sI1851
Vparakeet
p1852
sI1852
Vderby
p1853
sI1853
Vtightrope
p1854
sI1854
Vsurgeons
p1855
sI1855
Vgently
p1856
sI1856
Vpetals
p1857
sI1857
Vstuff
p1858
sI1858
Vends
p1859
sI1859
Vrams
p1860
sI1860
Vpier
p1861
sI1861
Vhiding
p1862
sI1862
Vswimmers
p1863
sI1863
Vconstruction
p1864
sI1864
Vnuts
p1865
sI1865
Vinterview
p1866
sI1866
Vreaches
p1867
sI1867
Vsled
p1868
sI1868
Velectronic
p1869
sI1869
Vmincing
p1870
sI1870
Vsouse
p1871
sI1871
Vrail
p1872
sI1872
Vboxed
p1873
sI1873
Vbreaded
p1874
sI1874
Vgutting
p1875
sI1875
Vnitrogen
p1876
sI1876
Vscaling
p1877
sI1877
Vfriend
p1878
sI1878
Vbi-cycle
p1879
sI1879
Vslam
p1880
sI1880
Vwheels
p1881
sI1881
Vstems
p1882
sI1882
Vwrecks
p1883
sI1883
Vthinking
p1884
sI1884
Vbusiness
p1885
sI1885
Vsniffs
p1886
sI1886
Vyou
p1887
sI1887
Vflaming
p1888
sI1888
Vbarbell
p1889
sI1889
Vpretending
p1890
sI1890
Vinstructing
p1891
sI1891
Vlathe
p1892
sI1892
Vdvd
p1893
sI1893
Vhalloween
p1894
sI1894
Vdiagonal
p1895
sI1895
Vkeep
p1896
sI1896
Vmotorcyle
p1897
sI1897
Vpushups
p1898
sI1898
Vpurchasing
p1899
sI1899
Vtire
p1900
sI1900
Vcontrolled
p1901
sI1901
Vsingle
p1902
sI1902
Vtreadmills
p1903
sI1903
Vnew
p1904
sI1904
Vstabbing
p1905
sI1905
Vscrubbing
p1906
sI1906
Vcolorful
p1907
sI1907
Vbeater
p1908
sI1908
Vpets
p1909
sI1909
Vheight
p1910
sI1910
Vmelted
p1911
sI1911
Vlies
p1912
sI1912
Vfinally
p1913
sI1913
Vskates
p1914
sI1914
Vcorner
p1915
sI1915
Vpressing
p1916
sI1916
Vdoctor
p1917
sI1917
Vpad
p1918
sI1918
Vdoll
p1919
sI1919
Vsuitcase
p1920
sI1920
Vcreatures
p1921
sI1921
Vempties
p1922
sI1922
Vlanded
p1923
sI1923
Vnumbers
p1924
sI1924
Vsharp
p1925
sI1925
Vspeech
p1926
sI1926
Vhare
p1927
sI1927
Vcapsicum
p1928
sI1928
Vbamboo
p1929
sI1929
Veither
p1930
sI1930
Vslams
p1931
sI1931
Vexplaining
p1932
sI1932
Vbleeding
p1933
sI1933
Vlight
p1934
sI1934
Vhave
p1935
sI1935
Vsplits
p1936
sI1936
Vplain
p1937
sI1937
Vinjured
p1938
sI1938
Vslits
p1939
sI1939
Vrice-a-roni
p1940
sI1940
Vyanks
p1941
sI1941
Vcrumbs
p1942
sI1942
Vthree-legged
p1943
sI1943
Vshots
p1944
sI1944
Vwelsh
p1945
sI1945
Vdisplaying
p1946
sI1946
Vfigure
p1947
sI1947
Vdropped
p1948
sI1948
Vwide
p1949
sI1949
Vjeep
p1950
sI1950
Vjug
p1951
sI1951
Vrubbed
p1952
sI1952
Vseparate
p1953
sI1953
Vskidded
p1954
sI1954
Vsuddenly
p1955
sI1955
Vwrestled
p1956
sI1956
Vequation
p1957
sI1957
Vjack-o-lantern
p1958
sI1958
Vsandcastle
p1959
sI1959
Vpassed
p1960
sI1960
Vstalk
p1961
sI1961
Vchoreographed
p1962
sI1962
Vbark
p1963
sI1963
Vfirearms
p1964
sI1964
Vcement
p1965
sI1965
Vloading
p1966
sI1966
Vfenced
p1967
sI1967
Vperched
p1968
sI1968
Vleaving
p1969
sI1969
Vinspecting
p1970
sI1970
Vdive
p1971
sI1971
Vtorpedo
p1972
sI1972
Vdangling
p1973
sI1973
Vtrotting
p1974
sI1974
Vbackpack
p1975
sI1975
Vmessage
p1976
sI1976
Vplayfully
p1977
sI1977
Vchannels
p1978
sI1978
Vhalf-pipe
p1979
sI1979
Vpaddles
p1980
sI1980
Vbodybuilder
p1981
sI1981
Vbomb
p1982
sI1982
Vblending
p1983
sI1983
Vworked
p1984
sI1984
Vthings
p1985
sI1985
Vmeadow
p1986
sI1986
Vscratches
p1987
sI1987
Vpoking
p1988
sI1988
Vspot
p1989
sI1989
Vtore
p1990
sI1990
Vquarter
p1991
sI1991
Ventering
p1992
sI1992
Vtake
p1993
sI1993
Vmand
p1994
sI1994
Vsqueezed
p1995
sI1995
Vbuying
p1996
sI1996
Vunwraps
p1997
sI1997
Vvolleyball
p1998
sI1998
Viced
p1999
sI1999
Vbumper
p2000
sI2000
Vdrunk
p2001
sI2001
Vpressed
p2002
sI2002
Vstack
p2003
sI2003
Vrichie
p2004
sI2004
Vtemple
p2005
sI2005
Vlane
p2006
sI2006
Vholes
p2007
sI2007
Vfresh
p2008
sI2008
Vmagic
p2009
sI2009
Vtwine
p2010
sI2010
Vsneezes
p2011
sI2011
Vtracer
p2012
sI2012
Vnotebook
p2013
sI2013
Vyells
p2014
sI2014
Vsteep
p2015
sI2015
Vcrocheting
p2016
sI2016
Vstuffing
p2017
sI2017
Vrobotic
p2018
sI2018
Vgymnastics
p2019
sI2019
Vdrumming
p2020
sI2020
Vsnuggling
p2021
sI2021
Vapollo
p2022
sI2022
Vproblem
p2023
sI2023
Vtrims
p2024
sI2024
Vblanket
p2025
sI2025
Vplow
p2026
sI2026
Vwork
p2027
sI2027
Vdenver
p2028
sI2028
Vflock
p2029
sI2029
Vmotorized
p2030
sI2030
Vcreated
p2031
sI2031
Vjohn
p2032
sI2032
Vhappily
p2033
sI2033
Viron
p2034
sI2034
Vdrawn
p2035
sI2035
Vplates
p2036
sI2036
Vperimeter
p2037
sI2037
Vloin
p2038
sI2038
Vtroupe
p2039
sI2039
Vappear
p2040
sI2040
Vexplosion
p2041
sI2041
Vexiting
p2042
sI2042
Vurinates
p2043
sI2043
Vnot
p2044
sI2044
Vwrap
p2045
sI2045
Vangel
p2046
sI2046
Vsledge
p2047
sI2047
Vritually
p2048
sI2048
Vnearby
p2049
sI2049
Vfinish
p2050
sI2050
Vlistening
p2051
sI2051
Vsplitting
p2052
sI2052
Vrecruits
p2053
sI2053
Vballet
p2054
sI2054
Vbreads
p2055
sI2055
Vpetted
p2056
sI2056
Vevent
p2057
sI2057
Vlip
p2058
sI2058
Vporcupine
p2059
sI2059
Vdialing
p2060
sI2060
Vready
p2061
sI2061
Vchairs
p2062
sI2062
Velectrical
p2063
sI2063
Vsuits
p2064
sI2064
Vbooth
p2065
sI2065
Vexamining
p2066
sI2066
Vcrosses
p2067
sI2067
Vcrossed
p2068
sI2068
Vouter
p2069
sI2069
Vwrapper
p2070
sI2070
Vattack
p2071
sI2071
Vblades
p2072
sI2072
Vkey
p2073
sI2073
Vchalk
p2074
sI2074
Vparts
p2075
sI2075
Vping-pong
p2076
sI2076
Vdemonstrates
p2077
sI2077
Vswam
p2078
sI2078
Vcruising
p2079
sI2079
Vbikini
p2080
sI2080
Varmy
p2081
sI2081
Vobstacle
p2082
sI2082
Vfoods
p2083
sI2083
Vbushes
p2084
sI2084
Vscoring
p2085
sI2085
Vchihuahua
p2086
sI2086
Vmini
p2087
sI2087
Vsees
p2088
sI2088
Vpoints
p2089
sI2089
Vattempts
p2090
sI2090
Vstepping
p2091
sI2091
Vbearded
p2092
sI2092
Vsmokes
p2093
sI2093
Vsmoked
p2094
sI2094
Vsave
p2095
sI2095
Vcarving
p2096
sI2096
Vtransfers
p2097
sI2097
Vteeth
p2098
sI2098
Vgazebo
p2099
sI2099
Vsalting
p2100
sI2100
Vsomersault
p2101
sI2101
Vtill
p2102
sI2102
Vthing
p2103
sI2103
Vgathering
p2104
sI2104
Vskinned
p2105
sI2105
Vmovements
p2106
sI2106
Vaiming
p2107
sI2107
Vvertically
p2108
sI2108
Vfacing
p2109
sI2109
Vdownstairs
p2110
sI2110
Vsurfer
p2111
sI2111
Vbarked
p2112
sI2112
Vlemons
p2113
sI2113
Vrevive
p2114
sI2114
Vbackseat
p2115
sI2115
Vreverse
p2116
sI2116
Vbruce
p2117
sI2117
Vmayonnaise
p2118
sI2118
Vtablespoon
p2119
sI2119
Vingredient
p2120
sI2120
Vhuddled
p2121
sI2121
Vbounces
p2122
sI2122
Vnuzzling
p2123
sI2123
Vscoop
p2124
sI2124
Vmic
p2125
sI2125
Vparks
p2126
sI2126
Vstrikes
p2127
sI2127
Vphotographs
p2128
sI2128
Vbeat
p2129
sI2129
Vbull
p2130
sI2130
Valmost
p2131
sI2131
Vmatchbook
p2132
sI2132
Vadd
p2133
sI2133
Vsocks
p2134
sI2134
Vcrawled
p2135
sI2135
Vtiller
p2136
sI2136
Vpin
p2137
sI2137
Vsleep
p2138
sI2138
Vhospital
p2139
sI2139
Vshoot
p2140
sI2140
Vceremony
p2141
sI2141
Vswaying
p2142
sI2142
Vsigning
p2143
sI2143
Vfluid
p2144
sI2144
Vliquor
p2145
sI2145
Vsharpens
p2146
sI2146
Vbikinis
p2147
sI2147
Vropes
p2148
sI2148
Vstenography
p2149
sI2149
Vdinner
p2150
sI2150
Vportions
p2151
sI2151
Voutstretched
p2152
sI2152
Vleads
p2153
sI2153
Vmelon
p2154
sI2154
Vbrother
p2155
sI2155
Vdries
p2156
sI2156
Vweird
p2157
sI2157
Vteased
p2158
sI2158
Vgrab
p2159
sI2159
Vkamaboko
p2160
sI2160
Vfails
p2161
sI2161
Vfarmers
p2162
sI2162
Vventriloquist
p2163
sI2163
Vkill
p2164
sI2164
Vfridge
p2165
sI2165
Vcompetition
p2166
sI2166
Vshirtless
p2167
sI2167
Vcordless
p2168
sI2168
Vticket
p2169
sI2169
Vequations
p2170
sI2170
Vwrestler
p2171
sI2171
Vcourt
p2172
sI2172
Valcohol
p2173
sI2173
Vfancy
p2174
sI2174
Vexploded
p2175
sI2175
Vdug
p2176
sI2176
Vplants
p2177
sI2177
Vrim
p2178
sI2178
Vlower
p2179
sI2179
Vbounced
p2180
sI2180
Vworkers
p2181
sI2181
Vrains
p2182
sI2182
Vhelping
p2183
sI2183
Vstruggles
p2184
sI2184
Vhorizontally
p2185
sI2185
Vmovie
p2186
sI2186
Vmugs
p2187
sI2187
Vclosed
p2188
sI2188
Vpackaging
p2189
sI2189
Vmike
p2190
sI2190
Vpainted
p2191
sI2191
Vrooster
p2192
sI2192
Vscissor
p2193
sI2193
Vkinds
p2194
sI2194
Vraining
p2195
sI2195
Vfingernails
p2196
sI2196
Vherb
p2197
sI2197
Vthyme
p2198
sI2198
Vmusicians
p2199
sI2199
Vshowed
p2200
sI2200
Vsoaked
p2201
sI2201
Vsinger
p2202
sI2202
Veyelids
p2203
sI2203
Vlots
p2204
sI2204
Vscore
p2205
sI2205
Vpits
p2206
sI2206
Vfro
p2207
sI2207
Vmarched
p2208
sI2208
Vtuna
p2209
sI2209
Vmoonwalk
p2210
sI2210
Vhay
p2211
sI2211
Vmarinating
p2212
sI2212
Vcreed
p2213
sI2213
Vtrampolines
p2214
sI2214
Vraised
p2215
sI2215
Vson
p2216
sI2216
Vlaunching
p2217
sI2217
Vmarathon
p2218
sI2218
Vskewer
p2219
sI2219
Vblasting
p2220
sI2220
Vcanvas
p2221
sI2221
Vbumps
p2222
sI2222
Vweapons
p2223
sI2223
Vtears
p2224
sI2224
Vvertical
p2225
sI2225
Vsupermarket
p2226
sI2226
Vstretch
p2227
sI2227
Vformed
p2228
sI2228
Vspotlight
p2229
sI2229
Vshuts
p2230
sI2230
Vskier
p2231
sI2231
Vmoped
p2232
sI2232
Vad
p2233
sI2233
Vsmile
p2234
sI2234
Vswirling
p2235
sI2235
Vindividuals
p2236
sI2236
Vsucker
p2237
sI2237
Vbends
p2238
sI2238
Vbumped
p2239
sI2239
Vgold
p2240
sI2240
Vblended
p2241
sI2241
Vsee
p2242
sI2242
Voverboard
p2243
sI2243
Vpickup
p2244
sI2244
Vraces
p2245
sI2245
Vpresses
p2246
sI2246
Vfunny
p2247
sI2247
Velevated
p2248
sI2248
Vchorus
p2249
sI2249
Vbounce
p2250
sI2250
Vinserting
p2251
sI2251
Vgarbage
p2252
sI2252
Vstrums
p2253
sI2253
Vfighter
p2254
sI2254
Vcontinues
p2255
sI2255
Vdecorating
p2256
sI2256
Vapparatus
p2257
sI2257
Vdelivering
p2258
sI2258
Vtied
p2259
sI2259
Vties
p2260
sI2260
Vvise
p2261
sI2261
Vhops
p2262
sI2262
Vraccoon-like
p2263
sI2263
Vframe
p2264
sI2264
Vinteracting
p2265
sI2265
Vfigures
p2266
sI2266
Vbald
p2267
sI2267
Vcriss
p2268
sI2268
Vmuch
p2269
sI2269
Vdelivers
p2270
sI2270
Vbooties
p2271
sI2271
Vabove
p2272
sI2272
Vsimultaneously
p2273
sI2273
Vsinks
p2274
sI2274
Vangrily
p2275
sI2275
Vseparates
p2276
sI2276
Vlay
p2277
sI2277
Vcollide
p2278
sI2278
Vmedicine
p2279
sI2279
Vcreates
p2280
sI2280
Vduckling
p2281
sI2281
Venjoyed
p2282
sI2282
Vvoice
p2283
sI2283
Vphotographer
p2284
sI2284
Vpeed
p2285
sI2285
Vpees
p2286
sI2286
Vdiner
p2287
sI2287
Vreception
p2288
sI2288
Vswitches
p2289
sI2289
Vupper
p2290
sI2290
Vwheelies
p2291
sI2291
Vheard
p2292
sI2292
Vdiscussion
p2293
sI2293
Vfreezer
p2294
sI2294
Vsprinting
p2295
sI2295
Vsunset
p2296
sI2296
Vsport
p2297
sI2297
Veddie
p2298
sI2298
Vtaken
p2299
sI2299
Vracetrack
p2300
sI2300
Vflattening
p2301
sI2301
Valongside
p2302
sI2302
Vflights
p2303
sI2303
Vcompeting
p2304
sI2304
Vboils
p2305
sI2305
Vgloved
p2306
sI2306
Vboxers
p2307
sI2307
Vgrand
p2308
sI2308
Vradiator
p2309
sI2309
Vcloud
p2310
sI2310
Vmeet
p2311
sI2311
Vplayground
p2312
sI2312
Vtimer
p2313
sI2313
Vmad
p2314
sI2314
Vphotograph
p2315
sI2315
Vpassionately
p2316
sI2316
V(
p2317
sI2317
Vpoultry
p2318
sI2318
Vi
p2319
sI2319
Vobstacles
p2320
sI2320
Vwell
p2321
sI2321
Vdistant
p2322
sI2322
Vmartin
p2323
sI2323
Vnightclub
p2324
sI2324
Vtongue
p2325
sI2325
Vgerbil
p2326
sI2326
Vcarriage
p2327
sI2327
Vemerges
p2328
sI2328
Vjapanese
p2329
sI2329
Vscreams
p2330
sI2330
Vmo-pad
p2331
sI2331
Vtwirled
p2332
sI2332
Vathletes
p2333
sI2333
Vlucy
p2334
sI2334
Vleaned
p2335
sI2335
Vspinach
p2336
sI2336
Vsomone
p2337
sI2337
Vmedical
p2338
sI2338
Vsail
p2339
sI2339
Vswoops
p2340
sI2340
Vtarsier
p2341
sI2341
Vpractices
p2342
sI2342
Vdear
p2343
sI2343
Vslurry
p2344
sI2344
Vsuper
p2345
sI2345
Vbikers
p2346
sI2346
Vcreamy
p2347
sI2347
Vviolins
p2348
sI2348
Vloaves
p2349
sI2349
Vshoes
p2350
sI2350
Vleopards
p2351
sI2351
Vmonster
p2352
sI2352
Vsounds
p2353
sI2353
Vbutt
p2354
sI2354
Vbrowning
p2355
sI2355
Vwinding
p2356
sI2356
Vblends
p2357
sI2357
Vparent
p2358
sI2358
Veventually
p2359
sI2359
Vpile
p2360
sI2360
Vmom
p2361
sI2361
Verase
p2362
sI2362
Vshells
p2363
sI2363
Varranged
p2364
sI2364
Vspicing
p2365
sI2365
Vhusky
p2366
sI2366
Venjoying
p2367
sI2367
Vstood
p2368
sI2368
Vdachshund
p2369
sI2369
Vwiped
p2370
sI2370
Vquesadilla
p2371
sI2371
Vrifles
p2372
sI2372
Vbacked
p2373
sI2373
Vstabs
p2374
sI2374
Vrowed
p2375
sI2375
Vbreast
p2376
sI2376
Vremove
p2377
sI2377
Vslips
p2378
sI2378
Vkneeding
p2379
sI2379
Vpiled
p2380
sI2380
Vcurb
p2381
sI2381
Vmusician
p2382
sI2382
Vmower
p2383
sI2383
Vtoasted
p2384
sI2384
Ventire
p2385
sI2385
Vlime
p2386
sI2386
Vche
p2387
sI2387
Varranging
p2388
sI2388
Vbuildings
p2389
sI2389
Vwaters
p2390
sI2390
Vtickles
p2391
sI2391
Vapproaches
p2392
sI2392
Vstiring
p2393
sI2393
Vyarn
p2394
sI2394
Vunrolling
p2395
sI2395
Vtapir
p2396
sI2396
Vdeveining
p2397
sI2397
Vrotating
p2398
sI2398
Vgrabbed
p2399
sI2399
Vbean
p2400
sI2400
Vorgan
p2401
sI2401
Vmows
p2402
sI2402
V)
p2403
sI2403
Vtumbles
p2404
sI2404
Vseats
p2405
sI2405
Vworks
p2406
sI2406
Vcircus
p2407
sI2407
Vbeaten
p2408
sI2408
Vcharging
p2409
sI2409
Vtoe
p2410
sI2410
Vradio
p2411
sI2411
Vwedding
p2412
sI2412
Vreport
p2413
sI2413
Vswept
p2414
sI2414
Vfaces
p2415
sI2415
Vglides
p2416
sI2416
Vforehead
p2417
sI2417
Vbasketballs
p2418
sI2418
Vcycle
p2419
sI2419
Vsponge
p2420
sI2420
Vcurry
p2421
sI2421
Vyacht
p2422
sI2422
Vbackward
p2423
sI2423
Vcoach
p2424
sI2424
Vlevel
p2425
sI2425
Vcorn
p2426
sI2426
Vprey
p2427
sI2427
Viphone
p2428
sI2428
Vperformer
p2429
sI2429
Vindividually
p2430
sI2430
Vtrunks
p2431
sI2431
Vtempura
p2432
sI2432
Vmarionette
p2433
sI2433
Vsoaring
p2434
sI2434
Vseason
p2435
sI2435
Vdining
p2436
sI2436
Vanimation
p2437
sI2437
Vbite-sized
p2438
sI2438
Vdirection
p2439
sI2439
Vcast
p2440
sI2440
Vbuys
p2441
sI2441
Vblow
p2442
sI2442
Vtower
p2443
sI2443
Vmoon
p2444
sI2444
Vtrash
p2445
sI2445
Vchinese
p2446
sI2446
Vdisc
p2447
sI2447
Vdisk
p2448
sI2448
Vswung
p2449
sI2449
Vsautes
p2450
sI2450
Vfeed
p2451
sI2451
Vstory
p2452
sI2452
Vaims
p2453
sI2453
Vcleaner
p2454
sI2454
Vbending
p2455
sI2455
Vwheeling
p2456
sI2456
Vwrote
p2457
sI2457
Vbarn
p2458
sI2458
Vinitially
p2459
sI2459
Voutfit
p2460
sI2460
Vcheek
p2461
sI2461
Vsharpened
p2462
sI2462
Vshaped
p2463
sI2463
Vshapes
p2464
sI2464
Vchin-ups
p2465
sI2465
Vorangatan
p2466
sI2466
Vraising
p2467
sI2467
Vmustard
p2468
sI2468
Vbreasts
p2469
sI2469
Vvice
p2470
sI2470
Vonce
p2471
sI2471
Vsteve
p2472
sI2472
Vstream
p2473
sI2473
Vsix
p2474
sI2474
Vtickling
p2475
sI2475
Vshallot
p2476
sI2476
Vshelf
p2477
sI2477
Vafraid
p2478
sI2478
Vwords
p2479
sI2479
Vcross
p2480
sI2480
Vmember
p2481
sI2481
Vown
p2482
sI2482
Vknelt
p2483
sI2483
Vscrapes
p2484
sI2484
Vreported
p2485
sI2485
Vuntil
p2486
sI2486
Vfemales
p2487
sI2487
Vhoe
p2488
sI2488
Vhamsters
p2489
sI2489
Vdoghouse
p2490
sI2490
Vmimicking
p2491
sI2491
Vseries
p2492
sI2492
Vturnip
p2493
sI2493
Vrc
p2494
sI2494
Vstamping
p2495
sI2495
Vspeeds
p2496
sI2496
Vreturns
p2497
sI2497
Vcrawl
p2498
sI2498
Vparamedics
p2499
sI2499
Vmetallic
p2500
sI2500
Vtouched
p2501
sI2501
Vpiggy
p2502
sI2502
Vaccident
p2503
sI2503
Vcontestants
p2504
sI2504
Vstartled
p2505
sI2505
Vspin
p2506
sI2506
Vtorching
p2507
sI2507
Vsnout
p2508
sI2508
Vperiphery
p2509
sI2509
Vpinches
p2510
sI2510
Vwaits
p2511
sI2511
Voverhead
p2512
sI2512
Vpaprika
p2513
sI2513
Vtriangles
p2514
sI2514
Vactor
p2515
sI2515
Vflood
p2516
sI2516
Vdragonfly
p2517
sI2517
Valone
p2518
sI2518
Vriders
p2519
sI2519
Vfrogs
p2520
sI2520
Vhides
p2521
sI2521
Vgarlands
p2522
sI2522
Vbursting
p2523
sI2523
Vbits
p2524
sI2524
Vtasted
p2525
sI2525
Vzoo
p2526
sI2526
Vnote
p2527
sI2527
Vmicrowaves
p2528
sI2528
Vbright
p2529
sI2529
Vpoops
p2530
sI2530
Vedges
p2531
sI2531
Vmohawk
p2532
sI2532
Vpecks
p2533
sI2533
Vsteamed
p2534
sI2534
Vmandolin
p2535
sI2535
Vbongos
p2536
sI2536
Vtuba
p2537
sI2537
Vwade
p2538
sI2538
Vwalken
p2539
sI2539
Veyedropper
p2540
sI2540
Vte
p2541
sI2541
Vrichard
p2542
sI2542
Vsection
p2543
sI2543
Vpoodle
p2544
sI2544
Vmore
p2545
sI2545
Vteen
p2546
sI2546
Vcoyote
p2547
sI2547
Vkeeping
p2548
sI2548
Vtwisting
p2549
sI2549
Vbroadcasting
p2550
sI2550
Vfound
p2551
sI2551
Voperation
p2552
sI2552
Vmisses
p2553
sI2553
Vdrifting
p2554
sI2554
Vcorrugated
p2555
sI2555
Vtomatos
p2556
sI2556
Vinterviewed
p2557
sI2557
Vblond
p2558
sI2558
Vcruises
p2559
sI2559
Vburrata
p2560
sI2560
Vapproaching
p2561
sI2561
Vjerboa
p2562
sI2562
Vtouch
p2563
sI2563
Vpremises
p2564
sI2564
Vpatty
p2565
sI2565
Vwheeled
p2566
sI2566
Vpound
p2567
sI2567
Vcigar
p2568
sI2568
Vgoblet
p2569
sI2569
Vemergency
p2570
sI2570
Vpouncing
p2571
sI2571
Vspring
p2572
sI2572
Vcurious
p2573
sI2573
Vjewish
p2574
sI2574
Vrelaxes
p2575
sI2575
Vyelled
p2576
sI2576
Vpepperonis
p2577
sI2577
Vactors
p2578
sI2578
Vsplashing
p2579
sI2579
Vmanipulates
p2580
sI2580
Vtry
p2581
sI2581
Vlee
p2582
sI2582
Vvinegar
p2583
sI2583
Vopinion
p2584
sI2584
Vwhipping
p2585
sI2585
Vcustomer
p2586
sI2586
Vchristopher
p2587
sI2587
V'
p2588
sI2588
Vshut
p2589
sI2589
Vowner
p2590
sI2590
Vbedroom
p2591
sI2591
Vrough
p2592
sI2592
Vbuttons
p2593
sI2593
Vtape
p2594
sI2594
Vlistened
p2595
sI2595
Vhandstand
p2596
sI2596
Vfielding
p2597
sI2597
Vcrack
p2598
sI2598
Vjalapeno
p2599
sI2599
Vbasin
p2600
sI2600
Vziploc
p2601
sI2601
Vlift
p2602
sI2602
Vsearched
p2603
sI2603
Vurinating
p2604
sI2604
Vbra
p2605
sI2605
Vgloss
p2606
sI2606
Vscary
p2607
sI2607
Vbubbles
p2608
sI2608
Vbreak
p2609
sI2609
Vkneels
p2610
sI2610
Vswatting
p2611
sI2611
Vmanner
p2612
sI2612
Vmaterials
p2613
sI2613
Vlong-eared
p2614
sI2614
Vsleepy
p2615
sI2615
Vgentleman
p2616
sI2616
Vreceives
p2617
sI2617
Vrelaxing
p2618
sI2618
Voxiclean
p2619
sI2619
Vdemonstration
p2620
sI2620
Vboxer
p2621
sI2621
Vfloat
p2622
sI2622
Vsnowy
p2623
sI2623
Vveterinarian
p2624
sI2624
Vtest
p2625
sI2625
Vscored
p2626
sI2626
Vjuices
p2627
sI2627
Vjogged
p2628
sI2628
Vaggressively
p2629
sI2629
Vsloths
p2630
sI2630
Vflames
p2631
sI2631
Vbangs
p2632
sI2632
Vsnowboard
p2633
sI2633
Ventrance
p2634
sI2634
Vcap
p2635
sI2635
Vproduct
p2636
sI2636
Vdisplayed
p2637
sI2637
Vstill
p2638
sI2638
Vtending
p2639
sI2639
Vrooftop
p2640
sI2640
Vgalloping
p2641
sI2641
Vdrop
p2642
sI2642
Vsize
p2643
sI2643
Vthan
p2644
sI2644
Vfruits
p2645
sI2645
Vhappy
p2646
sI2646
Valgebraic
p2647
sI2647
Vsauteed
p2648
sI2648
Vhurts
p2649
sI2649
Vcycling
p2650
sI2650
Vone-armed
p2651
sI2651
Vfigurines
p2652
sI2652
Vstruck
p2653
sI2653
Vswim
p2654
sI2654
Vbarbells
p2655
sI2655
Vconversing
p2656
sI2656
Vvegtables
p2657
sI2657
Vstrainer
p2658
sI2658
Vprepare
p2659
sI2659
Vomelet
p2660
sI2660
Vbeyond
p2661
sI2661
Vpupply
p2662
sI2662
Vcomputerized
p2663
sI2663
Vbullion
p2664
sI2664
Vsafety
p2665
sI2665
Vfamily
p2666
sI2666
Vcontains
p2667
sI2667
Vscallions
p2668
sI2668
Vhamburgers
p2669
sI2669
Vclarinet
p2670
sI2670
Vcarpeted
p2671
sI2671
Vsolving
p2672
sI2672
Vterrain
p2673
sI2673
Vdesperately
p2674
sI2674
Vstopped
p2675
sI2675
Vbass
p2676
sI2676
Vpug
p2677
sI2677
Vpup
p2678
sI2678
Vsignaling
p2679
sI2679
Vbattering
p2680
sI2680
Vrandomly
p2681
sI2681
Vflicked
p2682
sI2682
Vimitating
p2683
sI2683
Vgloves
p2684
sI2684
Vmissing
p2685
sI2685
Vspray
p2686
sI2686
Vjeff
p2687
sI2687
Voverweight
p2688
sI2688
Vconsistency
p2689
sI2689
Vremaining
p2690
sI2690
Vmarch
p2691
sI2691
Vminced
p2692
sI2692
Vstew
p2693
sI2693
Vhalfpipe
p2694
sI2694
Vkickboxing
p2695
sI2695
Vdepartment
p2696
sI2696
Vdraw
p2697
sI2697
Vyoutube
p2698
sI2698
Vbarbecue
p2699
sI2699
Vsnowboards
p2700
sI2700
Vpoles
p2701
sI2701
Vshoreline
p2702
sI2702
Vstance
p2703
sI2703
Vwhacks
p2704
sI2704
Vcheeks
p2705
sI2705
V1/2
p2706
sI2706
Vstarted
p2707
sI2707
Vtriangle
p2708
sI2708
Velliptical
p2709
sI2709
Vskated
p2710
sI2710
Vchunk
p2711
sI2711
Vemptying
p2712
sI2712
Vcellphone
p2713
sI2713
Vindoor
p2714
sI2714
Vskate-board
p2715
sI2715
Vfuel
p2716
sI2716
Vsurfs
p2717
sI2717
Vgray
p2718
sI2718
Vdriveway
p2719
sI2719
Vwyclef
p2720
sI2720
Vyam
p2721
sI2721
Verases
p2722
sI2722
Vtabletop
p2723
sI2723
Vrafter
p2724
sI2724
Vcrushes
p2725
sI2725
Vgrinding
p2726
sI2726
Vtadpole
p2727
sI2727
Vjournal
p2728
sI2728
Vpastries
p2729
sI2729
Vinner
p2730
sI2730
Vstar
p2731
sI2731
Vfriends
p2732
sI2732
Vsolution
p2733
sI2733
Vweirdly
p2734
sI2734
Vslicer
p2735
sI2735
Vgive
p2736
sI2736
Vthird
p2737
sI2737
Vpianos
p2738
sI2738
Vextract
p2739
sI2739
Vloud
p2740
sI2740
Vhydrant
p2741
sI2741
Vgym
p2742
sI2742
Vmashed
p2743
sI2743
Vcelery
p2744
sI2744
Vtiles
p2745
sI2745
Vpatted
p2746
sI2746
Vears
p2747
sI2747
Vfluffy
p2748
sI2748
Vlotion
p2749
sI2749
Vseven
p2750
sI2750
Vif
p2751
sI2751
Vfoot-ball
p2752
sI2752
Vpolaroid
p2753
sI2753
Vwagged
p2754
sI2754
Vjust
p2755
sI2755
Vfighters
p2756
sI2756
Vchives
p2757
sI2757
Varguing
p2758
sI2758
Vform
p2759
sI2759
Vdiaper
p2760
sI2760
Vsticky
p2761
sI2761
Vclings
p2762
sI2762
Vskis
p2763
sI2763
Veye-shadow
p2764
sI2764
Vfrosting
p2765
sI2765
Vbob
p2766
sI2766
Vcarnival
p2767
sI2767
Vclung
p2768
sI2768
Vshocked
p2769
sI2769
Vshop
p2770
sI2770
Vfrolicking
p2771
sI2771
Vrestroom
p2772
sI2772
Vstretches
p2773
sI2773
Vstretched
p2774
sI2774
Vbmx
p2775
sI2775
Vsound
p2776
sI2776
Vspoonful
p2777
sI2777
Vmoney
p2778
sI2778
Vvending
p2779
sI2779
Vfrantically
p2780
sI2780
Vnewscaster
p2781
sI2781
Vinsect
p2782
sI2782
Vfile
p2783
sI2783
Vpersonnel
p2784
sI2784
Vrollerblading
p2785
sI2785
Vstudents
p2786
sI2786
Vdecorated
p2787
sI2787
Vsneeze
p2788
sI2788
Vhitchhiker
p2789
sI2789
Vsucks
p2790
sI2790
Vinfant
p2791
sI2791
Vchopper
p2792
sI2792
Vpaint
p2793
sI2793
Vleash
p2794
sI2794
Vaged
p2795
sI2795
Vrafters
p2796
sI2796
Vgiggling
p2797
sI2797
Vdrifts
p2798
sI2798
Vhillside
p2799
sI2799
Vfloats
p2800
sI2800
Vsparring
p2801
sI2801
Vliguid
p2802
sI2802
Vcalender
p2803
sI2803
Vhorse-drawn
p2804
sI2804
Vmarrying
p2805
sI2805
Vwalrus
p2806
sI2806
Vgoods
p2807
sI2807
Vhard-boiled
p2808
sI2808
Vopponent
p2809
sI2809
Vmurphy
p2810
sI2810
Vunwrapping
p2811
sI2811
Vstagecoach
p2812
sI2812
Vbubblegum
p2813
sI2813
Vlens
p2814
sI2814
Vstrolled
p2815
sI2815
Vmowed
p2816
sI2816
Vshock
p2817
sI2817
Vbaskets
p2818
sI2818
Vnoises
p2819
sI2819
Vonlookers
p2820
sI2820
Vtickled
p2821
sI2821
Vgazing
p2822
sI2822
Vlecture
p2823
sI2823
Vretriever
p2824
sI2824
Vhurdle
p2825
sI2825
Vcompletes
p2826
sI2826
Vapparently
p2827
sI2827
Vsupported
p2828
sI2828
Vareas
p2829
sI2829
Vfixed
p2830
sI2830
Vcauliflower
p2831
sI2831
Vboulders
p2832
sI2832
Vperplexed
p2833
sI2833
Vhelped
p2834
sI2834
Vtumbling
p2835
sI2835
Vhose
p2836
sI2836
Vzooms
p2837
sI2837
Vcoke
p2838
sI2838
Vdresses
p2839
sI2839
Vhitch
p2840
sI2840
Vjack
p2841
sI2841
Vtweezers
p2842
sI2842
Vpats
p2843
sI2843
Vbeck
p2844
sI2844
Vchanges
p2845
sI2845
Vvisible
p2846
sI2846
Vspike
p2847
sI2847
Vtissue
p2848
sI2848
Vshook
p2849
sI2849
Vdrummed
p2850
sI2850
Vdrummer
p2851
sI2851
Vmess
p2852
sI2852
Vsnarling
p2853
sI2853
Vdaredevil
p2854
sI2854
Valoud
p2855
sI2855
Vcombining
p2856
sI2856
Vgrasses
p2857
sI2857
Vdays
p2858
sI2858
Vbait
p2859
sI2859
Vbeen
p2860
sI2860
Vrhythmically
p2861
sI2861
Vpharmacy
p2862
sI2862
Vcore
p2863
sI2863
Vsneezing
p2864
sI2864
Vshakira
p2865
sI2865
Vno
p2866
sI2866
Vpapers
p2867
sI2867
Vcool
p2868
sI2868
Vhandles
p2869
sI2869
Vfrothy
p2870
sI2870
Vsoccar
p2871
sI2871
Vgarlics
p2872
sI2872
Vtorch
p2873
sI2873
Vexploring
p2874
sI2874
Vcumin
p2875
sI2875
Vclowns
p2876
sI2876
Vspoons
p2877
sI2877
Vcome
p2878
sI2878
Vpoll
p2879
sI2879
Vteammate
p2880
sI2880
Vpilot
p2881
sI2881
Vmount
p2882
sI2882
Vgood
p2883
sI2883
Vomelette
p2884
sI2884
Vstyles
p2885
sI2885
Vcowboys
p2886
sI2886
Vstumbles
p2887
sI2887
Vpaddy
p2888
sI2888
Vcurvy
p2889
sI2889
Vparmesan
p2890
sI2890
Vteh
p2891
sI2891
Vversion
p2892
sI2892
Vminiature
p2893
sI2893
Vmilkshake
p2894
sI2894
Vsticking
p2895
sI2895
Vdonuts
p2896
sI2896
Vfloyd
p2897
sI2897
Vstethoscope
p2898
sI2898
Vexplains
p2899
sI2899
Vbeyonce
p2900
sI2900
Vracoons
p2901
sI2901
Vpoliceman
p2902
sI2902
Vbraided
p2903
sI2903
Vinteract
p2904
sI2904
Vphotographing
p2905
sI2905
Vdouble
p2906
sI2906
Vmeasures
p2907
sI2907
Vreach
p2908
sI2908
Vart
p2909
sI2909
Vrecording
p2910
sI2910
Vvillage
p2911
sI2911
Vleans
p2912
sI2912
Vcheer
p2913
sI2913
Vdoberman
p2914
sI2914
Vcustomers
p2915
sI2915
Vtends
p2916
sI2916
Vperpendicular
p2917
sI2917
Vrally
p2918
sI2918
Vswats
p2919
sI2919
Vwinds
p2920
sI2920
Vcyclist
p2921
sI2921
Vgere
p2922
sI2922
Vtaco
p2923
sI2923
Vmaterial
p2924
sI2924
Vutensil
p2925
sI2925
Vclip
p2926
sI2926
Vcentre
p2927
sI2927
Vview
p2928
sI2928
Vunison
p2929
sI2929
Voutruns
p2930
sI2930
Vbbq
p2931
sI2931
Vunpeeled
p2932
sI2932
Veyelashes
p2933
sI2933
Vinch
p2934
sI2934
Vwhale
p2935
sI2935
Vbanging
p2936
sI2936
Vcarrie
p2937
sI2937
Vcried
p2938
sI2938
Vpanther
p2939
sI2939
Vscared
p2940
sI2940
Vdetergent
p2941
sI2941
Vdemonstrate
p2942
sI2942
Vlory
p2943
sI2943
Vcrossbar
p2944
sI2944
Vsinking
p2945
sI2945
Vfigs
p2946
sI2946
Vmaneuver
p2947
sI2947
Vtires
p2948
sI2948
Vpawed
p2949
sI2949
Vmilitary
p2950
sI2950
Vexplained
p2951
sI2951
Vbrings
p2952
sI2952
Vhold
p2953
sI2953
Vplunges
p2954
sI2954
Vwand
p2955
sI2955
Vsippy
p2956
sI2956
Vdiagonally
p2957
sI2957
Vfit
p2958
sI2958
Vhidden
p2959
sI2959
Vcrops
p2960
sI2960
Vwobbling
p2961
sI2961
Vcausing
p2962
sI2962
Vamusing
p2963
sI2963
Vdoors
p2964
sI2964
Vpaintbrush
p2965
sI2965
Vcamp
p2966
sI2966
Vsaying
p2967
sI2967
Vboogie
p2968
sI2968
Vreclines
p2969
sI2969
Vbusy
p2970
sI2970
Vheartily
p2971
sI2971
Vhoeing
p2972
sI2972
Vpocket
p2973
sI2973
Vpads
p2974
sI2974
Vsmelled
p2975
sI2975
Vcountry
p2976
sI2976
Vheating
p2977
sI2977
Vwatercraft
p2978
sI2978
Vstartles
p2979
sI2979
Vbilling
p2980
sI2980
Vupside-down
p2981
sI2981
Vstadium
p2982
sI2982
Vspit
p2983
sI2983
Vtzu
p2984
sI2984
Vpesquet
p2985
sI2985
Vmarches
p2986
sI2986
Vburgers
p2987
sI2987
Vmassaging
p2988
sI2988
Venters
p2989
sI2989
Vposed
p2990
sI2990
Vpossibly
p2991
sI2991
Vgameboy
p2992
sI2992
Voccurring
p2993
sI2993
Vforepaw
p2994
sI2994
Vvegtable
p2995
sI2995
Vring-like
p2996
sI2996
Vfog
p2997
sI2997
Vgrooms
p2998
sI2998
Vpalms
p2999
sI2999
Vmodels
p3000
sI3000
Vfastened
p3001
sI3001
Vaerobic
p3002
sI3002
Vchilds
p3003
sI3003
Vbicycles
p3004
sI3004
Vgallops
p3005
sI3005
Vsubway
p3006
sI3006
Vlistens
p3007
sI3007
Vscoots
p3008
sI3008
Vveins
p3009
sI3009
Vexploding
p3010
sI3010
Vformula
p3011
sI3011
Vbumpy
p3012
sI3012
Vsilhouetted
p3013
sI3013
Vbackside
p3014
sI3014
V2
p3015
sI3015
Vpadding
p3016
sI3016
Valley
p3017
sI3017
Vsay
p3018
sI3018
Vsax
p3019
sI3019
Vaside
p3020
sI3020
Vhanding
p3021
sI3021
Vprinted
p3022
sI3022
Voperate
p3023
sI3023
Vbackdrop
p3024
sI3024
Vmolds
p3025
sI3025
Vspare
p3026
sI3026
Vmenacing
p3027
sI3027
Vgrooming
p3028
sI3028
Vtrimmed
p3029
sI3029
Vcombines
p3030
sI3030
Vrecyclables
p3031
sI3031
Vlanes
p3032
sI3032
Vfelling
p3033
sI3033
Vtribal
p3034
sI3034
Vcanoes
p3035
sI3035
Vbrow
p3036
sI3036
Vengaged
p3037
sI3037
Vpacing
p3038
sI3038
Vneighborhood
p3039
sI3039
Vrest
p3040
sI3040
Vpersonals
p3041
sI3041
Vbarbecued
p3042
sI3042
Vcilantro
p3043
sI3043
Vtraffic
p3044
sI3044
Vmanas
p3045
sI3045
Vstationary
p3046
sI3046
Vpickles
p3047
sI3047
Vexit
p3048
sI3048
Vhen
p3049
sI3049
Vgliding
p3050
sI3050
Vthumps
p3051
sI3051
Vtorso
p3052
sI3052
Vpulp
p3053
sI3053
Vstraightens
p3054
sI3054
Vmask
p3055
sI3055
Vmimic
p3056
sI3056
Vmotocross
p3057
sI3057
Vceramic
p3058
sI3058
Vcauses
p3059
sI3059
Vpaying
p3060
sI3060
Vfloated
p3061
sI3061
Vcable
p3062
sI3062
Vfashion
p3063
sI3063
Vsync
p3064
sI3064
Vpass
p3065
sI3065
Vnurse
p3066
sI3066
Vshops
p3067
sI3067
Vaction
p3068
sI3068
Vstrolling
p3069
sI3069
Vbatsman
p3070
sI3070
Vmall
p3071
sI3071
Vstates
p3072
sI3072
Vbrowns
p3073
sI3073
Vwaved
p3074
sI3074
Vcountryside
p3075
sI3075
Vappealed
p3076
sI3076
Vdieing
p3077
sI3077
Vreally
p3078
sI3078
Vcockpit
p3079
sI3079
Vsargent
p3080
sI3080
Vantagonizes
p3081
sI3081
Vself
p3082
sI3082
Vdepartmental
p3083
sI3083
Vbeams
p3084
sI3084
Vclosely
p3085
sI3085
Vbarely
p3086
sI3086
Vload
p3087
sI3087
Vhollow
p3088
sI3088
Vbelt
p3089
sI3089
Vcaged
p3090
sI3090
Vleaning
p3091
sI3091
Vcages
p3092
sI3092
Vwaterslide
p3093
sI3093
Vviewing
p3094
sI3094
Vcanned
p3095
sI3095
Vforrest
p3096
sI3096
Vdrizzles
p3097
sI3097
Vsomoene
p3098
sI3098
Vemanating
p3099
sI3099
Vstylist
p3100
sI3100
Vbouncy
p3101
sI3101
Voiling
p3102
sI3102
Vbridesmaids
p3103
sI3103
Vbutters
p3104
sI3104
Vun
p3105
sI3105
Vchat
p3106
sI3106
Vtarp
p3107
sI3107
Vmelts
p3108
sI3108
Vweatherman
p3109
sI3109
Vpestering
p3110
sI3110
Vsphagetti
p3111
sI3111
Vslabs
p3112
sI3112
Vled
p3113
sI3113
Vsquirming
p3114
sI3114
Vbobbing
p3115
sI3115
Vbeavers
p3116
sI3116
Vflours
p3117
sI3117
Vbend
p3118
sI3118
Vswishes
p3119
sI3119
Vcontraption
p3120
sI3120
Vhawk
p3121
sI3121
Vantelope
p3122
sI3122
Vsneezed
p3123
sI3123
Vaccompanied
p3124
sI3124
Vwander
p3125
sI3125
Vdough-like
p3126
sI3126
Vfrowns
p3127
sI3127
Vban
p3128
sI3128
Vgraze
p3129
sI3129
Vblown
p3130
sI3130
Vstraining
p3131
sI3131
Vprank
p3132
sI3132
Vspaceship
p3133
sI3133
Vlow
p3134
sI3134
Vamongst
p3135
sI3135
Vsocializing
p3136
sI3136
Vignited
p3137
sI3137
Vmechanical
p3138
sI3138
Vwounded
p3139
sI3139
Vtaps
p3140
sI3140
Vpinhead
p3141
sI3141
Vshaping
p3142
sI3142
Vflopped
p3143
sI3143
Vsome-one
p3144
sI3144
Vsuperhero
p3145
sI3145
Vdrug
p3146
sI3146
Vpounces
p3147
sI3147
Vlectern
p3148
sI3148
Vroasting
p3149
sI3149
Vhangman
p3150
sI3150
Vfuji
p3151
sI3151
Vsleds
p3152
sI3152
Vsketching
p3153
sI3153
Vscreamed
p3154
sI3154
Verect
p3155
sI3155
Vcradling
p3156
sI3156
Vrhythmic
p3157
sI3157
Vsmooth
p3158
sI3158
Vrubble
p3159
sI3159
Vmarley
p3160
sI3160
Vgoalkeeper
p3161
sI3161
Vghost
p3162
sI3162
Vcompete
p3163
sI3163
Vbubbling
p3164
sI3164
Vmachines
p3165
sI3165
Vpursuit
p3166
sI3166
Vhairdo
p3167
sI3167
Vseparated
p3168
sI3168
Vmeowed
p3169
sI3169
Vblocking
p3170
sI3170
Vtaunts
p3171
sI3171
Vclinging
p3172
sI3172
Via
p3173
sI3173
Vacrobatic
p3174
sI3174
Vlad
p3175
sI3175
Vgreet
p3176
sI3176
Vwriggling
p3177
sI3177
Vambulance
p3178
sI3178
Voffice
p3179
sI3179
Vsea-shore
p3180
sI3180
Vsafe
p3181
sI3181
Vbank
p3182
sI3182
Vlogo
p3183
sI3183
Vburlap
p3184
sI3184
Vtrainers
p3185
sI3185
Villustrate
p3186
sI3186
Vcrunches
p3187
sI3187
Velevator
p3188
sI3188
Vlatter
p3189
sI3189
Vdisembarking
p3190
sI3190
Vpooping
p3191
sI3191
Vsun
p3192
sI3192
Vfitted
p3193
sI3193
Vdredges
p3194
sI3194
Vsteam
p3195
sI3195
Vobserves
p3196
sI3196
Vlemonade
p3197
sI3197
Vcattle
p3198
sI3198
Vslugs
p3199
sI3199
Vwe
p3200
sI3200
Vwo
p3201
sI3201
Vcot
p3202
sI3202
Vstrummed
p3203
sI3203
Vdisappears
p3204
sI3204
Vpeacefully
p3205
sI3205
Vtony
p3206
sI3206
Vporing
p3207
sI3207
Vlaunches
p3208
sI3208
Vovertaking
p3209
sI3209
Vplateful
p3210
sI3210
Vdrip
p3211
sI3211
Vudon
p3212
sI3212
Vtaxied
p3213
sI3213
Vnuzzles
p3214
sI3214
Vasking
p3215
sI3215
Vcapped
p3216
sI3216
Vtumblers
p3217
sI3217
Vwax
p3218
sI3218
Vwar
p3219
sI3219
Vmuscular
p3220
sI3220
Vbaguette
p3221
sI3221
Vdimly
p3222
sI3222
Vbattle
p3223
sI3223
Vrectangles
p3224
sI3224
Vlayers
p3225
sI3225
Vprotective
p3226
sI3226
Vblast
p3227
sI3227
Vuniform
p3228
sI3228
Vsmearing
p3229
sI3229
Vteaches
p3230
sI3230
Vhiking
p3231
sI3231
Vseashore
p3232
sI3232
Vintently
p3233
sI3233
Vcountertop
p3234
sI3234
Vheart
p3235
sI3235
Vchin
p3236
sI3236
Vclothing
p3237
sI3237
Vburrowing
p3238
sI3238
Vbirds
p3239
sI3239
Veighths
p3240
sI3240
Vhalt
p3241
sI3241
Vritchie
p3242
sI3242
Ven
p3243
sI3243
Vhand-held
p3244
sI3244
Vreceiving
p3245
sI3245
Vshears
p3246
sI3246
Vjugs
p3247
sI3247
Vrugged
p3248
sI3248
Vtransferred
p3249
sI3249
Vbreakfast
p3250
sI3250
Vramata
p3251
sI3251
Vpattern
p3252
sI3252
Vgerman
p3253
sI3253
Vbreadcrumbs
p3254
sI3254
Vcelebrate
p3255
sI3255
Vhusband
p3256
sI3256
Vhoed
p3257
sI3257
Vwheely
p3258
sI3258
Vhelipad
p3259
sI3259
Vpureed
p3260
sI3260
Vlearning
p3261
sI3261
Vsoil
p3262
sI3262
Vhens
p3263
sI3263
Vcinder
p3264
sI3264
Vsevere
p3265
sI3265
Vpuree
p3266
sI3266
Vgreeting
p3267
sI3267
Vt
p3268
sI3268
Vrehearsing
p3269
sI3269
Vwillis
p3270
sI3270
Vplatic
p3271
sI3271
Vchefs
p3272
sI3272
Vcheff
p3273
sI3273
Vpaints
p3274
sI3274
Vstare
p3275
sI3275
Vgrater
p3276
sI3276
Vtable-tennis
p3277
sI3277
Vlol
p3278
sI3278
Vdrains
p3279
sI3279
Vappliance
p3280
sI3280
Vdrift
p3281
sI3281
Vstrings
p3282
sI3282
Vwashroom
p3283
sI3283
Vmittens
p3284
sI3284
Vscallops
p3285
sI3285
Vexcess
p3286
sI3286
Vamount
p3287
sI3287
Vsurgeions
p3288
sI3288
Vbrowned
p3289
sI3289
Vmounted
p3290
sI3290
Vthumper
p3291
sI3291
Vthumped
p3292
sI3292
Vincisions
p3293
sI3293
Vcommunicating
p3294
sI3294
Vrhinos
p3295
sI3295
Vskinning
p3296
sI3296
Vpeeing
p3297
sI3297
Vvomit
p3298
sI3298
Vtraveled
p3299
sI3299
Vintervene
p3300
sI3300
Vjaws
p3301
sI3301
Vdunk
p3302
sI3302
Vheartbeat
p3303
sI3303
Vdabbing
p3304
sI3304
Vcoolant
p3305
sI3305
Vplaypen
p3306
sI3306
Vscooted
p3307
sI3307
Vwitha
p3308
sI3308
Vx
p3309
sI3309
Vwoodchuck
p3310
sI3310
Vliked
p3311
sI3311
Vrailway-track
p3312
sI3312
Velse
p3313
sI3313
Vflees
p3314
sI3314
Vforelegs
p3315
sI3315
Vfatty
p3316
sI3316
Vsprinted
p3317
sI3317
Valbino
p3318
sI3318
Vmathematical
p3319
sI3319
Vdescribing
p3320
sI3320
Vrug
p3321
sI3321
Vseeing
p3322
sI3322
Vwithin
p3323
sI3323
Vdwayne
p3324
sI3324
Vinjection
p3325
sI3325
Vspectators
p3326
sI3326
Vrested
p3327
sI3327
Vsmiled
p3328
sI3328
Vevenly
p3329
sI3329
Vcompact
p3330
sI3330
Vtrolleys
p3331
sI3331
Vtelling
p3332
sI3332
Vshish
p3333
sI3333
Vshiso
p3334
sI3334
Vclimed
p3335
sI3335
Vyuzu
p3336
sI3336
Vaddresses
p3337
sI3337
Vpopped
p3338
sI3338
Vbecomes
p3339
sI3339
Vbroom
p3340
sI3340
Vbrocolli
p3341
sI3341
Vsandy
p3342
sI3342
Vcricketer
p3343
sI3343
Vgeometry
p3344
sI3344
Vsuckling
p3345
sI3345
Vhorseman
p3346
sI3346
Vmerrier
p3347
sI3347
Vstroked
p3348
sI3348
Vpaved
p3349
sI3349
Vbagged
p3350
sI3350
Vable
p3351
sI3351
Vstereo
p3352
sI3352
Vsummersaults
p3353
sI3353
Vslows
p3354
sI3354
Vsipping
p3355
sI3355
Vuniformed
p3356
sI3356
Vpitch
p3357
sI3357
Vwritten
p3358
sI3358
Vrinsed
p3359
sI3359
Verased
p3360
sI3360
Veraser
p3361
sI3361
Vpie
p3362
sI3362
Vexamines
p3363
sI3363
Vgazebo-like
p3364
sI3364
Vsavannah
p3365
sI3365
Vbatters
p3366
sI3366
Vsized
p3367
sI3367
Vfountain
p3368
sI3368
Vbalboa
p3369
sI3369
Vrodeo
p3370
sI3370
Vcongregate
p3371
sI3371
Vutility
p3372
sI3372
Vsynthesizer
p3373
sI3373
Vtriangular
p3374
sI3374
Vstrawberries
p3375
sI3375
Vgoals
p3376
sI3376
Vpenne
p3377
sI3377
Vbalcony
p3378
sI3378
Vstab
p3379
sI3379
Vpowdery
p3380
sI3380
Vpowders
p3381
sI3381
Vasian
p3382
sI3382
Vskills
p3383
sI3383
Vquilt
p3384
sI3384
Vjackets
p3385
sI3385
Vwelch
p3386
sI3386
Vtell
p3387
sI3387
Vwarm
p3388
sI3388
Vtrots
p3389
sI3389
Vvodka
p3390
sI3390
Vbraids
p3391
sI3391
Vabdomen
p3392
sI3392
Vpurchase
p3393
sI3393
Vglazes
p3394
sI3394
Vroast
p3395
sI3395
Vinserts
p3396
sI3396
Vskins
p3397
sI3397
Vstealing
p3398
sI3398
Vassaults
p3399
sI3399
Vaisle
p3400
sI3400
Vsteward
p3401
sI3401
Vswiping
p3402
sI3402
Vliquids
p3403
sI3403
Vhoop
p3404
sI3404
Vbuttock
p3405
sI3405
Vtwister
p3406
sI3406
Vdigs
p3407
sI3407
Vskiied
p3408
sI3408
Vseen
p3409
sI3409
Vfitting
p3410
sI3410
Vflowerettes
p3411
sI3411
Vfields
p3412
sI3412
Vgrilled
p3413
sI3413
Varsenio
p3414
sI3414
Vabdominal
p3415
sI3415
Vasks
p3416
sI3416
Vdusting
p3417
sI3417
Vreddish
p3418
sI3418
Vaeroplane
p3419
sI3419
Vpastry
p3420
sI3420
Vkit
p3421
sI3421
Vblanching
p3422
sI3422
Vmanual
p3423
sI3423
Vskateboarded
p3424
sI3424
Vkeeper
p3425
sI3425
Vmagazine
p3426
sI3426
Vchimp
p3427
sI3427
Vanti-freeze
p3428
sI3428
Vmarinara
p3429
sI3429
Vshih
p3430
sI3430
Vtoss
p3431
sI3431
Vdigital
p3432
sI3432
Vwarehouse
p3433
sI3433
Vsummersault
p3434
sI3434
Vanswered
p3435
sI3435
Vmashing
p3436
sI3436
Vfillet
p3437
sI3437
Vclerk
p3438
sI3438
Vbow
p3439
sI3439
Vraccoon
p3440
sI3440
Vsake
p3441
sI3441
Vde-shelled
p3442
sI3442
Vsharpen
p3443
sI3443
Varmpits
p3444
sI3444
Vdesigned
p3445
sI3445
Vtale
p3446
sI3446
Vafrican
p3447
sI3447
Vrabbi
p3448
sI3448
Vmonitor
p3449
sI3449
Vmaid
p3450
sI3450
Vkabobs
p3451
sI3451
Vlunch
p3452
sI3452
Vsideways
p3453
sI3453
Vwaited
p3454
sI3454
Vcrib
p3455
sI3455
Vcarry
p3456
sI3456
Vfiery
p3457
sI3457
Vdived
p3458
sI3458
Vnotches
p3459
sI3459
Vcomedian
p3460
sI3460
Voccupied
p3461
sI3461
Vperformance
p3462
sI3462
Vchannel
p3463
sI3463
Vbleating
p3464
sI3464
Vdice
p3465
sI3465
Vspraying
p3466
sI3466
Vbopping
p3467
sI3467
Vgrass-field
p3468
sI3468
Vamong
p3469
sI3469
Vunusual
p3470
sI3470
Vspills
p3471
sI3471
Vn't
p3472
sI3472
Vcock
p3473
sI3473
Vaerobics
p3474
sI3474
Vstruggling
p3475
sI3475
Vbicyclists
p3476
sI3476
V4
p3477
sI3477
Vlong-haired
p3478
sI3478
Vrailroad
p3479
sI3479
Vgrim
p3480
sI3480
Vfondling
p3481
sI3481
Vpasture
p3482
sI3482
Vbroken
p3483
sI3483
Vairline
p3484
sI3484
Vhandcuffed
p3485
sI3485
Vspicy
p3486
sI3486
Vwalkway
p3487
sI3487
Vromantic
p3488
sI3488
Vpitting
p3489
sI3489
Varranges
p3490
sI3490
Vsewed
p3491
sI3491
Vburrow
p3492
sI3492
Vgrowling
p3493
sI3493
Vworms
p3494
sI3494
Vjute
p3495
sI3495
Vhitchhiked
p3496
sI3496
Vportable
p3497
sI3497
Vstool
p3498
sI3498
Vabs
p3499
sI3499
Vflouring
p3500
sI3500
Vmovement
p3501
sI3501
Vsurfed
p3502
sI3502
Varmed
p3503
sI3503
Vsplash
p3504
sI3504
Vdunks
p3505
sI3505
Vmarble
p3506
sI3506
Vpurchased
p3507
sI3507
Vrips
p3508
sI3508
Vblood
p3509
sI3509
Vcoat
p3510
sI3510
Vdumbbells
p3511
sI3511
Vfist
p3512
sI3512
Vacting
p3513
sI3513
Vbulls
p3514
sI3514
Vmembers
p3515
sI3515
Vpolishing
p3516
sI3516
Vflares
p3517
sI3517
Vchart
p3518
sI3518
Vengagements
p3519
sI3519
Vextremely
p3520
sI3520
Vdodging
p3521
sI3521
Vsector
p3522
sI3522
Vgriddle
p3523
sI3523
Vhalves
p3524
sI3524
Vcutout
p3525
sI3525
Vaircraft
p3526
sI3526
Vvehicles
p3527
sI3527
Vbongo
p3528
sI3528
Vdancer
p3529
sI3529
Vcreate
p3530
sI3530
Vgas
p3531
sI3531
Vbackflip
p3532
sI3532
Vwags
p3533
sI3533
Vclamping
p3534
sI3534
Vglove
p3535
sI3535
Vgardening
p3536
sI3536
Vpew
p3537
sI3537
Vscalp
p3538
sI3538
Vpee
p3539
sI3539
Vjockey
p3540
sI3540
Vhomemade
p3541
sI3541
Vspoonfuls
p3542
sI3542
Vnecks
p3543
sI3543
Vemanates
p3544
sI3544
Vporch
p3545
sI3545
Vcooker
p3546
sI3546
Vamused
p3547
sI3547
Vgravel
p3548
sI3548
Vmoon-walking
p3549
sI3549
Voils
p3550
sI3550
Vcurving
p3551
sI3551
Vnips
p3552
sI3552
Vunited
p3553
sI3553
Vbluff
p3554
sI3554
Vcuddling
p3555
sI3555
Vlines
p3556
sI3556
Vshreds
p3557
sI3557
Vwhites
p3558
sI3558
Vsquatting
p3559
sI3559
Vdad
p3560
sI3560
Vslipping
p3561
sI3561
Vtubular
p3562
sI3562
Vhedges
p3563
sI3563
Voriental
p3564
sI3564
Vretrieves
p3565
sI3565
Vsouth
p3566
sI3566
Vsack
p3567
sI3567
Vcurved
p3568
sI3568
Veight
p3569
sI3569
Vprisoner
p3570
sI3570
Vtext
p3571
sI3571
Vemitting
p3572
sI3572
Vstarch
p3573
sI3573
Vfixes
p3574
sI3574
Vboundary
p3575
sI3575
Vtoting
p3576
sI3576
Vwringing
p3577
sI3577
Vswimmer
p3578
sI3578
Vcarved
p3579
sI3579
Vhaunches
p3580
sI3580
Vax
p3581
sI3581
Vbuilder
p3582
sI3582
Vposition
p3583
sI3583
Vswordfight
p3584
sI3584
Vpit
p3585
sI3585
Vsurreal
p3586
sI3586
Vbaker
p3587
sI3587
Vbaked
p3588
sI3588
Vbarracks
p3589
sI3589
Vtweezing
p3590
sI3590
Vsupplies
p3591
sI3591
Vsmeone
p3592
sI3592
Vblowtorch
p3593
sI3593
Vmeaty
p3594
sI3594
Vadjacent
p3595
sI3595
Vbadly
p3596
sI3596
Vwhittle
p3597
sI3597
Vwhips
p3598
sI3598
Vshadows
p3599
sI3599
Vjuggling
p3600
sI3600
Vsplashed
p3601
sI3601
Vambled
p3602
sI3602
Vsplashes
p3603
sI3603
Vritual
p3604
sI3604
Vtow
p3605
sI3605
Vwildly
p3606
sI3606
Vflame
p3607
sI3607
Vrotors
p3608
sI3608
Vballing
p3609
sI3609
Vinterviewing
p3610
sI3610
Vaquarium
p3611
sI3611
Vdrowsy
p3612
sI3612
Vanchors
p3613
sI3613
Vpecked
p3614
sI3614
Vlollypop
p3615
sI3615
Vexterior
p3616
sI3616
Vjean
p3617
sI3617
Vbruise
p3618
sI3618
Vteenager
p3619
sI3619
Vhunk
p3620
sI3620
Vcnc
p3621
sI3621
Vcord
p3622
sI3622
Vmechanized
p3623
sI3623
Vplying
p3624
sI3624
Vsurround
p3625
sI3625
Vbats
p3626
sI3626
Vmannequins
p3627
sI3627
Vyounger
p3628
sI3628
Vsacks
p3629
sI3629
Vhatter
p3630
sI3630
Vposts
p3631
sI3631
Vsays
p3632
sI3632
Vgroups
p3633
sI3633
V[
p3634
sI3634
Vunidentified
p3635
sI3635
Vshelled
p3636
sI3636
Vminibike
p3637
sI3637
Vsledgehammer
p3638
sI3638
Vhandled
p3639
sI3639
Vsports
p3640
sI3640
Vlaughter
p3641
sI3641
Vstroke
p3642
sI3642
Vcounting
p3643
sI3643
Vsailboat
p3644
sI3644
Vstenograph
p3645
sI3645
Vclassroom
p3646
sI3646
Vlagoon
p3647
sI3647
Vacts
p3648
sI3648
Vblocked
p3649
sI3649
Vcheerleaders
p3650
sI3650
Vslumps
p3651
sI3651
Vnodding
p3652
sI3652
Vyanni
p3653
sI3653
Vtreading
p3654
sI3654
Vbutterflies
p3655
sI3655
Vteammates
p3656
sI3656
Vhug
p3657
sI3657
Vmates
p3658
sI3658
Vresembling
p3659
sI3659
Vsurf
p3660
sI3660
Vshooter
p3661
sI3661
Vcuddled
p3662
sI3662
Vapplicator
p3663
sI3663
Vperch
p3664
sI3664
Vtrot
p3665
sI3665
Vcrime
p3666
sI3666
Vjoker
p3667
sI3667
Vbought
p3668
sI3668
Vdiscussing
p3669
sI3669
Vcomedic
p3670
sI3670
Vpercussionist
p3671
sI3671
Vsatisfaction
p3672
sI3672
Vpod
p3673
sI3673
Vengine
p3674
sI3674
Vcash
p3675
sI3675
Varnold
p3676
sI3676
Vmound
p3677
sI3677
Vslippers
p3678
sI3678
Vvest
p3679
sI3679
Vpunches
p3680
sI3680
Vpunched
p3681
sI3681
Vpruning
p3682
sI3682
Vhelmet
p3683
sI3683
Vcheck
p3684
sI3684
Vtoweling
p3685
sI3685
Vbarefoot
p3686
sI3686
Vchanging
p3687
sI3687
Vflakes
p3688
sI3688
Vactions
p3689
sI3689
Vcaptured
p3690
sI3690
Vlets
p3691
sI3691
Vcolor
p3692
sI3692
Vbuddha
p3693
sI3693
Vitching
p3694
sI3694
Vwaded
p3695
sI3695
Vos
p3696
sI3696
Vwater-tub
p3697
sI3697
Vcabinet
p3698
sI3698
Vavacado
p3699
sI3699
Vpillows
p3700
sI3700
Vcurve
p3701
sI3701
Vseals
p3702
sI3702
Vsurgical
p3703
sI3703
Vlining
p3704
sI3704
Vprogram
p3705
sI3705
Vliter
p3706
sI3706
Vfar
p3707
sI3707
Vskewering
p3708
sI3708
Vcockatoo
p3709
sI3709
Vten
p3710
sI3710
Vtoothpick
p3711
sI3711
Vtags
p3712
sI3712
Vallows
p3713
sI3713
Velongated
p3714
sI3714
Vprimate
p3715
sI3715
Vessence
p3716
sI3716
Vmattress
p3717
sI3717
Vacoustical
p3718
sI3718
Vmight
p3719
sI3719
Vgenerously
p3720
sI3720
Vinstructions
p3721
sI3721
Vwarm-up
p3722
sI3722
Vfinding
p3723
sI3723
Vmeasured
p3724
sI3724
Vgrazed
p3725
sI3725
Vtills
p3726
sI3726
Vinvestigate
p3727
sI3727
Vcartoons
p3728
sI3728
Vbare
p3729
sI3729
Vcreating
p3730
sI3730
Vattention
p3731
sI3731
Vbronze
p3732
sI3732
Vwastebasket
p3733
sI3733
Vnipping
p3734
sI3734
Vbatch
p3735
sI3735
Vrollerskating
p3736
sI3736
Vrib
p3737
sI3737
Vnoodle
p3738
sI3738
Vacrobatics
p3739
sI3739
Vwonderland
p3740
sI3740
Vsaucer
p3741
sI3741
Vprop
p3742
sI3742
Vbookshelves
p3743
sI3743
Vamidst
p3744
sI3744
Vcalled
p3745
sI3745
Vsoars
p3746
sI3746
Vrainbow
p3747
sI3747
Vproblems
p3748
sI3748
Vjoining
p3749
sI3749
Vattire
p3750
sI3750
Vbowled
p3751
sI3751
Vunderwood
p3752
sI3752
Vsexy
p3753
sI3753
Vmeatball
p3754
sI3754
Vscaled
p3755
sI3755
Vdropper
p3756
sI3756
Vshoves
p3757
sI3757
Vgalloped
p3758
sI3758
Vuse
p3759
sI3759
Vcupboard
p3760
sI3760
Vmasks
p3761
sI3761
Vwrist
p3762
sI3762
Vrestrain
p3763
sI3763
Veasel
p3764
sI3764
Vflorets
p3765
sI3765
Vsculpting
p3766
sI3766
Vwakening
p3767
sI3767
Vsignboard
p3768
sI3768
Vsquealing
p3769
sI3769
Vsculpture
p3770
sI3770
Vteenagers
p3771
sI3771
Vangle
p3772
sI3772
Vtopmost
p3773
sI3773
Vstitching
p3774
sI3774
Vmarried
p3775
sI3775
Vladled
p3776
sI3776
Vladles
p3777
sI3777
Vsnuck
p3778
sI3778
Vkneaded
p3779
sI3779
Vwheelbarrows
p3780
sI3780
Vrocker
p3781
sI3781
Vcries
p3782
sI3782
Vrocked
p3783
sI3783
Varresting
p3784
sI3784
Vreadymade
p3785
sI3785
Vjars
p3786
sI3786
Vfacial
p3787
sI3787
Vpress
p3788
sI3788
Vcutlet
p3789
sI3789
Vbecause
p3790
sI3790
Vsequence
p3791
sI3791
Vsearching
p3792
sI3792
Vscares
p3793
sI3793
Vleak
p3794
sI3794
Vpolice-man
p3795
sI3795
Vleap
p3796
sI3796
Vsoaks
p3797
sI3797
Vbeard
p3798
sI3798
Vsqueeze
p3799
sI3799
Vunfolding
p3800
sI3800
Vgnawing
p3801
sI3801
Vdomesticated
p3802
sI3802
Vfawn
p3803
sI3803
Vcomically
p3804
sI3804
Velectricity
p3805
sI3805
Vswivel
p3806
sI3806
Vstabbed
p3807
sI3807
Vbarraged
p3808
sI3808
Vpiling
p3809
sI3809
Vcrotch
p3810
sI3810
Vsuccession
p3811
sI3811
Vspecially
p3812
sI3812
Vnigh
p3813
sI3813
Vswitchblade
p3814
sI3814
Vbannister
p3815
sI3815
Vshrugging
p3816
sI3816
Vsailed
p3817
sI3817
Vscraped
p3818
sI3818
Vsnuggled
p3819
sI3819
Vdangled
p3820
sI3820
Vthunder
p3821
sI3821
Vdangles
p3822
sI3822
Verror
p3823
sI3823
Vhere
p3824
sI3824
Vreports
p3825
sI3825
Vpowdering
p3826
sI3826
Vclimber
p3827
sI3827
Vdrys
p3828
sI3828
Vopponents
p3829
sI3829
Vchinchilla
p3830
sI3830
Vstrike
p3831
sI3831
Vmenaces
p3832
sI3832
Vsomehting
p3833
sI3833
Vsway
p3834
sI3834
Vplunger
p3835
sI3835
Vorganized
p3836
sI3836
Vauger
p3837
sI3837
Vsalmons
p3838
sI3838
Vphonecall
p3839
sI3839
Vbeauty
p3840
sI3840
Vtyped
p3841
sI3841
Vwrong
p3842
sI3842
Vcolorfully
p3843
sI3843
Vcalves
p3844
sI3844
Vbaggage
p3845
sI3845
Vhores
p3846
sI3846
Vfoodstuff
p3847
sI3847
Vwrought
p3848
sI3848
Vplayhouse
p3849
sI3849
Vliqud
p3850
sI3850
Vbringing
p3851
sI3851
Vfig
p3852
sI3852
Vvideo-game
p3853
sI3853
Vrink
p3854
sI3854
Vspider
p3855
sI3855
Vknit
p3856
sI3856
Vcompetes
p3857
sI3857
Vseads
p3858
sI3858
Vheading
p3859
sI3859
Vcompeted
p3860
sI3860
Vbagful
p3861
sI3861
Vshopper
p3862
sI3862
Vbitten
p3863
sI3863
Vtired
p3864
sI3864
Vneeded
p3865
sI3865
Vmaster
p3866
sI3866
Vcritter
p3867
sI3867
Vgrown-up
p3868
sI3868
Vcushions
p3869
sI3869
Vskimmed
p3870
sI3870
Vfeeling
p3871
sI3871
Vrunner
p3872
sI3872
Vguineapig
p3873
sI3873
Vsculpturing
p3874
sI3874
Vreleased
p3875
sI3875
Vforiegn
p3876
sI3876
Vpadded
p3877
sI3877
Vparticipate
p3878
sI3878
Vmenu
p3879
sI3879
Vmens
p3880
sI3880
Vrihanna
p3881
sI3881
Vvaccinations
p3882
sI3882
Vtips
p3883
sI3883
Vboarder
p3884
sI3884
Vpade
p3885
sI3885
Voceanic
p3886
sI3886
Vpirate
p3887
sI3887
Vclaws
p3888
sI3888
Vtoilette
p3889
sI3889
Vstrip-slicer
p3890
sI3890
Veye-shado
p3891
sI3891
Vargue
p3892
sI3892
Vasked
p3893
sI3893
Vmunched
p3894
sI3894
Vhumming
p3895
sI3895
Vchiseling
p3896
sI3896
Vsuperhuman
p3897
sI3897
Vdollies
p3898
sI3898
Vlife
p3899
sI3899
Vskiis
p3900
sI3900
Vchile
p3901
sI3901
Vkamakodo
p3902
sI3902
Vthree-piece
p3903
sI3903
Vcanoeing
p3904
sI3904
Vkohl
p3905
sI3905
Vtops
p3906
sI3906
Vtune
p3907
sI3907
Vweight-lifter
p3908
sI3908
Vonion-looking
p3909
sI3909
Vrushing
p3910
sI3910
Vham
p3911
sI3911
Vold-fashioned
p3912
sI3912
Vcreek
p3913
sI3913
Vplucked
p3914
sI3914
Vfom
p3915
sI3915
Vpinched
p3916
sI3916
Vhanseter
p3917
sI3917
Vchin-up
p3918
sI3918
Vpincher
p3919
sI3919
Vbowing
p3920
sI3920
Vchain-link
p3921
sI3921
Vstoreroom
p3922
sI3922
Vslightly
p3923
sI3923
Vgauze
p3924
sI3924
Vmagazines
p3925
sI3925
Vsupport
p3926
sI3926
Vconstantly
p3927
sI3927
Vjane
p3928
sI3928
Voffer
p3929
sI3929
Vtigers
p3930
sI3930
Vlayd
p3931
sI3931
Vmosture
p3932
sI3932
Vsmashed
p3933
sI3933
Vduet
p3934
sI3934
Vtournament
p3935
sI3935
Vmicrowaving
p3936
sI3936
Vuttered
p3937
sI3937
Vhydrating
p3938
sI3938
Vtransported
p3939
sI3939
V'n
p3940
sI3940
Vhawker
p3941
sI3941
Vexplosions
p3942
sI3942
Vshootout
p3943
sI3943
Vgown
p3944
sI3944
Vincividual
p3945
sI3945
Vballes
p3946
sI3946
Vblack-and-white-cat
p3947
sI3947
Vprances
p3948
sI3948
Vteat
p3949
sI3949
Vpanima
p3950
sI3950
Vshirts
p3951
sI3951
Vbagging
p3952
sI3952
Vghost-like
p3953
sI3953
Vaxes
p3954
sI3954
Vshappens
p3955
sI3955
Vcurrent
p3956
sI3956
Vbungalow
p3957
sI3957
Vcelebrates
p3958
sI3958
Vbanister
p3959
sI3959
Vyards
p3960
sI3960
Vpassengers
p3961
sI3961
Vstudies
p3962
sI3962
Vfake
p3963
sI3963
Vtraversing
p3964
sI3964
Vpara-sailing
p3965
sI3965
Vtightly
p3966
sI3966
Vtopples
p3967
sI3967
Vwondering
p3968
sI3968
Vfilms
p3969
sI3969
Vloving
p3970
sI3970
Vgrassing
p3971
sI3971
Vslaloming
p3972
sI3972
Vlocks
p3973
sI3973
Vdivided
p3974
sI3974
Vcirlces
p3975
sI3975
Velephany
p3976
sI3976
Vexplores
p3977
sI3977
Vexplorer
p3978
sI3978
Vexplored
p3979
sI3979
Vdate
p3980
sI3980
Vlids
p3981
sI3981
Vsquba
p3982
sI3982
Vsh
p3983
sI3983
Vtravel
p3984
sI3984
Vse
p3985
sI3985
Vdrunken
p3986
sI3986
Vpush-upson
p3987
sI3987
Vjig
p3988
sI3988
Vaccordion
p3989
sI3989
Vtorn
p3990
sI3990
Vsuspension
p3991
sI3991
Vsubordinates
p3992
sI3992
Vrecords
p3993
sI3993
Varriving
p3994
sI3994
Vfisherman
p3995
sI3995
Vretrieve
p3996
sI3996
Vbeetle
p3997
sI3997
Vtwo-piece
p3998
sI3998
Vnaked
p3999
sI3999
Vcontained
p4000
sI4000
Vigniting
p4001
sI4001
Vhairdresser
p4002
sI4002
Vquadropod
p4003
sI4003
Vplea
p4004
sI4004
Veel-like
p4005
sI4005
Vlaldy
p4006
sI4006
Vbisquit
p4007
sI4007
Vslashes
p4008
sI4008
Vartifact
p4009
sI4009
Vpotoatoe
p4010
sI4010
Vglossy
p4011
sI4011
Vjanitor
p4012
sI4012
Vlocations
p4013
sI4013
Vsad
p4014
sI4014
Vsaw
p4015
sI4015
Vscrammbling
p4016
sI4016
Vknead
p4017
sI4017
Vroadside
p4018
sI4018
Vmaneuvering
p4019
sI4019
Vnewscasters
p4020
sI4020
Vfenced-in
p4021
sI4021
Vcrochet
p4022
sI4022
Vknee
p4023
sI4023
Vinserted
p4024
sI4024
Vcushioned
p4025
sI4025
Vcherry
p4026
sI4026
Vbyclist
p4027
sI4027
Vstenotype
p4028
sI4028
Vaimlessly
p4029
sI4029
Vrobe
p4030
sI4030
Vclawing
p4031
sI4031
Vrobb
p4032
sI4032
Vassistant
p4033
sI4033
Vgerbal'sa
p4034
sI4034
Vtrys
p4035
sI4035
Vbombs
p4036
sI4036
Vpepperonies
p4037
sI4037
Vcheesecloth
p4038
sI4038
Vsurgery
p4039
sI4039
Vcube-size
p4040
sI4040
Vshakkira
p4041
sI4041
Vmops
p4042
sI4042
Vmoons
p4043
sI4043
Vjumper
p4044
sI4044
Vfarts
p4045
sI4045
Vbusting
p4046
sI4046
Vloafs
p4047
sI4047
Vparapet
p4048
sI4048
Vs
p4049
sI4049
Vexpression
p4050
sI4050
Vsubmerging
p4051
sI4051
Vtoothpaste
p4052
sI4052
Vbreath
p4053
sI4053
Vexcreting
p4054
sI4054
Vwants
p4055
sI4055
Vbrocoli
p4056
sI4056
Vtatoos
p4057
sI4057
Vstraighten
p4058
sI4058
Valuminium
p4059
sI4059
Vtased
p4060
sI4060
Vcafe
p4061
sI4061
Vslam-dunking
p4062
sI4062
Vwrappers
p4063
sI4063
Vbarbed
p4064
sI4064
Vwires
p4065
sI4065
Vwired
p4066
sI4066
Vadvertisement
p4067
sI4067
Vbooster
p4068
sI4068
Vcrusty
p4069
sI4069
Vsails
p4070
sI4070
Vkennel
p4071
sI4071
Vpickled
p4072
sI4072
Vpresentation
p4073
sI4073
Vscatched
p4074
sI4074
Vtote
p4075
sI4075
Vcavity
p4076
sI4076
Vsearing
p4077
sI4077
Vbelches
p4078
sI4078
Vescelator
p4079
sI4079
Vfished
p4080
sI4080
Vslender
p4081
sI4081
Vunpacks
p4082
sI4082
Vstony
p4083
sI4083
Vcurling
p4084
sI4084
Vchoppers
p4085
sI4085
Vfishes
p4086
sI4086
Vjumpped
p4087
sI4087
Vlounging
p4088
sI4088
Vcomplete
p4089
sI4089
Vpinneapple
p4090
sI4090
Vbundt
p4091
sI4091
Vplucks
p4092
sI4092
Vmice
p4093
sI4093
Vdirty
p4094
sI4094
Vone-handed
p4095
sI4095
Vdetailed
p4096
sI4096
Vcarves
p4097
sI4097
Vab
p4098
sI4098
Vjohnny
p4099
sI4099
Vmoutain
p4100
sI4100
Vadmiring
p4101
sI4101
Vtwists
p4102
sI4102
Velvis
p4103
sI4103
Vsit-ups
p4104
sI4104
Vmidget
p4105
sI4105
Vtricky
p4106
sI4106
Vgroom
p4107
sI4107
Vdressing
p4108
sI4108
Vknotted
p4109
sI4109
Vuncaged
p4110
sI4110
Vswallows
p4111
sI4111
Vdiary
p4112
sI4112
Vfloater
p4113
sI4113
Vstir-frying
p4114
sI4114
Vaccompanying
p4115
sI4115
Vlawnmower
p4116
sI4116
Vdodged
p4117
sI4117
Vlecturing
p4118
sI4118
Vbicyle
p4119
sI4119
Vleis
p4120
sI4120
Vbicylce
p4121
sI4121
Vstore-wrapped
p4122
sI4122
Vrummaging
p4123
sI4123
Vgose
p4124
sI4124
Vdarkens
p4125
sI4125
Vselect
p4126
sI4126
Valcoholic
p4127
sI4127
V6
p4128
sI4128
Vionion
p4129
sI4129
Vskatboarded
p4130
sI4130
Vocena
p4131
sI4131
Vvideoclip
p4132
sI4132
Vgallop
p4133
sI4133
Vsalts
p4134
sI4134
Vdazzle
p4135
sI4135
Vskatboarder
p4136
sI4136
Vfreshly
p4137
sI4137
Vsympathize
p4138
sI4138
Vthickener
p4139
sI4139
Vresemble
p4140
sI4140
Vrottweiler
p4141
sI4141
Vmousse
p4142
sI4142
Vpana
p4143
sI4143
Vpane
p4144
sI4144
Vtravelling
p4145
sI4145
Vtentatively
p4146
sI4146
Vhook
p4147
sI4147
Vpiping
p4148
sI4148
Vsquirrrel
p4149
sI4149
Vshocking
p4150
sI4150
Vcoring
p4151
sI4151
Veyelash
p4152
sI4152
Vwayons
p4153
sI4153
Vsalute
p4154
sI4154
Vteppanyaki
p4155
sI4155
Vrises
p4156
sI4156
Vtenderizing
p4157
sI4157
Vw
p4158
sI4158
Vclump
p4159
sI4159
Vfeeder
p4160
sI4160
Vdiffer
p4161
sI4161
Vswipe
p4162
sI4162
Vflings
p4163
sI4163
Vgetaway
p4164
sI4164
Vtummy
p4165
sI4165
Vmarriage
p4166
sI4166
Va..guitar
p4167
sI4167
Vpedestrian
p4168
sI4168
Vjostle
p4169
sI4169
Vknobs
p4170
sI4170
Vblackboard
p4171
sI4171
Vswiftly
p4172
sI4172
Vdirtbike
p4173
sI4173
Vcolliding
p4174
sI4174
Vbarren
p4175
sI4175
Vseasing
p4176
sI4176
Vdefender
p4177
sI4177
Vtogther
p4178
sI4178
Vkeychain
p4179
sI4179
Vgooey
p4180
sI4180
Vzip-bag
p4181
sI4181
Voccuring
p4182
sI4182
Vsunny
p4183
sI4183
Vsynchronization
p4184
sI4184
Vactress
p4185
sI4185
Vbanner
p4186
sI4186
Vcry
p4187
sI4187
Vwaling
p4188
sI4188
Vguides
p4189
sI4189
Vmonsters
p4190
sI4190
Venclosures
p4191
sI4191
Vadjoining
p4192
sI4192
Vcartoon-man
p4193
sI4193
Vsea-doo
p4194
sI4194
Vstomping
p4195
sI4195
Vwheeler
p4196
sI4196
Vracer
p4197
sI4197
Vawake
p4198
sI4198
Vhandling
p4199
sI4199
Vlade
p4200
sI4200
Vowen
p4201
sI4201
Vbinding
p4202
sI4202
Vfibers
p4203
sI4203
Vfetching
p4204
sI4204
Vrules
p4205
sI4205
Vwaddles
p4206
sI4206
Vhandcuffing
p4207
sI4207
Vclasped
p4208
sI4208
Vunto
p4209
sI4209
Vdrizzled
p4210
sI4210
Vcuffs
p4211
sI4211
Vdhal
p4212
sI4212
Vshoestring
p4213
sI4213
Vharvesting
p4214
sI4214
Vjutting
p4215
sI4215
Vclutches
p4216
sI4216
Vtoadstools
p4217
sI4217
Vmanhandling
p4218
sI4218
Vcontinue
p4219
sI4219
Vtribes
p4220
sI4220
Vclipping
p4221
sI4221
Vbite-size
p4222
sI4222
Vpale
p4223
sI4223
Vcupped
p4224
sI4224
Vdating
p4225
sI4225
Vconcealer
p4226
sI4226
Vjovovich
p4227
sI4227
Vbo
p4228
sI4228
Vdrinkware
p4229
sI4229
Vwildlife
p4230
sI4230
Vstraightened
p4231
sI4231
Vwrinkled
p4232
sI4232
Vharnessed
p4233
sI4233
Vopend
p4234
sI4234
Vsneaks
p4235
sI4235
Vu-
p4236
sI4236
Vatlantis
p4237
sI4237
Vposter
p4238
sI4238
Vatop
p4239
sI4239
Vcontinuously
p4240
sI4240
Vlabrador
p4241
sI4241
Vphantom
p4242
sI4242
Vswirl
p4243
sI4243
Vsided
p4244
sI4244
Vage
p4245
sI4245
Vdow
p4246
sI4246
Vbeverage
p4247
sI4247
Vscratch
p4248
sI4248
Vtotem
p4249
sI4249
Vseemed
p4250
sI4250
Voutwards
p4251
sI4251
Vbloody-faced
p4252
sI4252
Vathlete
p4253
sI4253
Vcopter
p4254
sI4254
Vlakadama
p4255
sI4255
Vwached
p4256
sI4256
Vlei
p4257
sI4257
Vgathered
p4258
sI4258
Vlet
p4259
sI4259
Vengage
p4260
sI4260
Vcte
p4261
sI4261
Vsurvey
p4262
sI4262
Vfirefox
p4263
sI4263
Vtools
p4264
sI4264
Vzip
p4265
sI4265
Veleven
p4266
sI4266
Vduplicate
p4267
sI4267
Vplaughing
p4268
sI4268
Vcasserole
p4269
sI4269
Vthis
p4270
sI4270
Vchallenge
p4271
sI4271
Vwedge
p4272
sI4272
Vrollerskated
p4273
sI4273
Vbent
p4274
sI4274
Vprocess
p4275
sI4275
Vlock
p4276
sI4276
Vslit
p4277
sI4277
Vslip
p4278
sI4278
Vshuffled
p4279
sI4279
Vdestroying
p4280
sI4280
Vswivels
p4281
sI4281
Vyellowish
p4282
sI4282
Vhalter
p4283
sI4283
Vdominos
p4284
sI4284
Vtier
p4285
sI4285
Vracks
p4286
sI4286
Velement
p4287
sI4287
Vthigh
p4288
sI4288
Vcuttng
p4289
sI4289
Vdecal
p4290
sI4290
Vdegrees
p4291
sI4291
Vtraverses
p4292
sI4292
Vbare-handed
p4293
sI4293
Vglassed
p4294
sI4294
Vscenic
p4295
sI4295
Vfrittata
p4296
sI4296
Vheated
p4297
sI4297
Vsportsman
p4298
sI4298
Vbooks
p4299
sI4299
Vbunched
p4300
sI4300
Vtemps
p4301
sI4301
Vsteering
p4302
sI4302
Vchilli
p4303
sI4303
Vspill
p4304
sI4304
Vdavid
p4305
sI4305
Vrepeats
p4306
sI4306
Vsphaghetti
p4307
sI4307
Vspilt
p4308
sI4308
Vslced
p4309
sI4309
Vbronzing
p4310
sI4310
Vlatern
p4311
sI4311
Vgoalee
p4312
sI4312
Vstars
p4313
sI4313
Vcrosswise
p4314
sI4314
Vchong
p4315
sI4315
Vtrike
p4316
sI4316
Vextraordinarily
p4317
sI4317
Vdowel
p4318
sI4318
Vrollercoaster
p4319
sI4319
Vcollecting
p4320
sI4320
Vdefending
p4321
sI4321
Villuminated
p4322
sI4322
Vdemolishes
p4323
sI4323
Vkarate-style
p4324
sI4324
Vsquawks
p4325
sI4325
Vmilla
p4326
sI4326
Vindividuls
p4327
sI4327
Vsegment
p4328
sI4328
Virt
p4329
sI4329
Vbring
p4330
sI4330
Vmanchester
p4331
sI4331
Vsmacks
p4332
sI4332
Vjaw
p4333
sI4333
Vridint
p4334
sI4334
Vpste
p4335
sI4335
Vgnaws
p4336
sI4336
Vhandle
p4337
sI4337
Vlucky
p4338
sI4338
Vstufs
p4339
sI4339
Vbreaddough
p4340
sI4340
Vslanted
p4341
sI4341
Vpacked
p4342
sI4342
Vdungeon
p4343
sI4343
Vbutts
p4344
sI4344
Vfigured
p4345
sI4345
Vdogsledding
p4346
sI4346
Vetc
p4347
sI4347
Vvolley
p4348
sI4348
Vca
p4349
sI4349
Vpounced
p4350
sI4350
Vct
p4351
sI4351
Vwaste
p4352
sI4352
Vmaneuvers
p4353
sI4353
V8-balls
p4354
sI4354
Vtoasting
p4355
sI4355
Vannouncer
p4356
sI4356
Vcompressions
p4357
sI4357
Vripe
p4358
sI4358
Vdog-sledding
p4359
sI4359
Vhardware
p4360
sI4360
Vskateboarders
p4361
sI4361
Vdusk
p4362
sI4362
Vforecasts
p4363
sI4363
Vfielder
p4364
sI4364
Vcolour
p4365
sI4365
Vpatterns
p4366
sI4366
Vussain
p4367
sI4367
Vlathering
p4368
sI4368
Vspinner
p4369
sI4369
Vlattice
p4370
sI4370
Vmarzipan
p4371
sI4371
Vcobble
p4372
sI4372
Vtick
p4373
sI4373
Vcrisp
p4374
sI4374
Vhabitat
p4375
sI4375
Vtransport
p4376
sI4376
Vkangaroom
p4377
sI4377
Vstairway
p4378
sI4378
Vselecting
p4379
sI4379
Viris
p4380
sI4380
Vsister
p4381
sI4381
Vslayer
p4382
sI4382
Vwhistles
p4383
sI4383
Vletters
p4384
sI4384
Vhousing
p4385
sI4385
Vbump
p4386
sI4386
Vfunnel
p4387
sI4387
Vdescaling
p4388
sI4388
Vgrate
p4389
sI4389
Vharvester
p4390
sI4390
Vgarbs
p4391
sI4391
Vnurses
p4392
sI4392
Vslowing
p4393
sI4393
Vagains
p4394
sI4394
Vcutomer
p4395
sI4395
Vpenciled
p4396
sI4396
Vvein
p4397
sI4397
Veyre
p4398
sI4398
Vrural
p4399
sI4399
Vswirls
p4400
sI4400
Vspit-up
p4401
sI4401
Vdefecating
p4402
sI4402
Vsped
p4403
sI4403
Vmanis
p4404
sI4404
Voion
p4405
sI4405
Vpince
p4406
sI4406
Vkithen
p4407
sI4407
Vtriumph
p4408
sI4408
Vchew
p4409
sI4409
Vhors
p4410
sI4410
Vphonen
p4411
sI4411
Vserrated
p4412
sI4412
Vnakhi
p4413
sI4413
Vfestive
p4414
sI4414
Vguiter
p4415
sI4415
Vbookcase
p4416
sI4416
Vcelebration
p4417
sI4417
Vbrowsing
p4418
sI4418
Vplot
p4419
sI4419
Vbundles
p4420
sI4420
Vmoonwalking
p4421
sI4421
Vpierced
p4422
sI4422
Vbunnies
p4423
sI4423
Vcrest
p4424
sI4424
Vworm
p4425
sI4425
Vcuddly
p4426
sI4426
Vcuddle
p4427
sI4427
Vingredents
p4428
sI4428
Vmechanic
p4429
sI4429
Velbow
p4430
sI4430
Vcrackers
p4431
sI4431
Vmotocycle
p4432
sI4432
Vfondant
p4433
sI4433
Vvoicing
p4434
sI4434
Vlat
p4435
sI4435
Vgreek
p4436
sI4436
Vdiapered
p4437
sI4437
Vorder
p4438
sI4438
Vtricked
p4439
sI4439
Vflute-like
p4440
sI4440
Vpedastal
p4441
sI4441
Vbrough
p4442
sI4442
Vascends
p4443
sI4443
Valternately
p4444
sI4444
Vl
p4445
sI4445
V\u092b\u0941\u091f\u092c\u094b\u0932
p4446
sI4446
Vlifter
p4447
sI4447
Vcantalopue
p4448
sI4448
Vbottles-milk
p4449
sI4449
Vbarrier
p4450
sI4450
Vforcibly
p4451
sI4451
Vdogg
p4452
sI4452
Vmessing
p4453
sI4453
Vkung-fu
p4454
sI4454
Vtackled
p4455
sI4455
Vvegatables
p4456
sI4456
Vgiraffes
p4457
sI4457
Vsportsmen
p4458
sI4458
Vladen
p4459
sI4459
Vgravy
p4460
sI4460
Vcircled
p4461
sI4461
V'street
p4462
sI4462
Vlense
p4463
sI4463
Vtoast
p4464
sI4464
Vforaging
p4465
sI4465
Vblading
p4466
sI4466
Vsews
p4467
sI4467
Vtracers
p4468
sI4468
Vbody-boarding
p4469
sI4469
Vnasty
p4470
sI4470
Vbreak-dancing
p4471
sI4471
Vscrubber
p4472
sI4472
Vsteal
p4473
sI4473
Vscrubbed
p4474
sI4474
Vclaymation
p4475
sI4475
Vtechniques
p4476
sI4476
Vafloat
p4477
sI4477
Vencounters
p4478
sI4478
Vrope-stage
p4479
sI4479
Vmoonwalks
p4480
sI4480
Vpackages
p4481
sI4481
Vreceiver
p4482
sI4482
Vgarnishing
p4483
sI4483
Vheadlights
p4484
sI4484
Vrakes
p4485
sI4485
Vattacker
p4486
sI4486
Vlauncher
p4487
sI4487
Vaim
p4488
sI4488
Vtraditonal
p4489
sI4489
Vaid
p4490
sI4490
Vlaunched
p4491
sI4491
Vmistake
p4492
sI4492
Vlaughting
p4493
sI4493
Vdrawers
p4494
sI4494
Vplated
p4495
sI4495
Vdescend
p4496
sI4496
Vincorrectly
p4497
sI4497
Vdocuments
p4498
sI4498
Vhispanic
p4499
sI4499
Vgyrating
p4500
sI4500
Voff-camera
p4501
sI4501
Vclamped
p4502
sI4502
Vtransformer
p4503
sI4503
Vlineman
p4504
sI4504
Vflooring
p4505
sI4505
Vcigarette-lighter
p4506
sI4506
Vphotographed
p4507
sI4507
Vcaps
p4508
sI4508
Vcape
p4509
sI4509
Vflavoring
p4510
sI4510
Vsecurity
p4511
sI4511
Vcooled
p4512
sI4512
Vescaltor
p4513
sI4513
Vlashes
p4514
sI4514
Vtramplines
p4515
sI4515
Vborn
p4516
sI4516
Vwoamn
p4517
sI4517
Vbanked
p4518
sI4518
Vnewspapers
p4519
sI4519
Vsizzling
p4520
sI4520
Vsauted
p4521
sI4521
Vbitting
p4522
sI4522
Vbalanced
p4523
sI4523
Vcompression
p4524
sI4524
Vlowest
p4525
sI4525
Vbettie
p4526
sI4526
Vcrys
p4527
sI4527
Vmole
p4528
sI4528
Vinterested
p4529
sI4529
Vfrolic
p4530
sI4530
Vjuicer
p4531
sI4531
Vwelcome
p4532
sI4532
Vpaces
p4533
sI4533
Vdomination
p4534
sI4534
Vbeds
p4535
sI4535
Vanimator
p4536
sI4536
Vswitched
p4537
sI4537
Vseargeant
p4538
sI4538
Vflash
p4539
sI4539
Vthighs
p4540
sI4540
Vrhythm
p4541
sI4541
Vsoother
p4542
sI4542
Vpull-tab
p4543
sI4543
Vbrows
p4544
sI4544
Vpresented
p4545
sI4545
Vpuppeteer
p4546
sI4546
Vevades
p4547
sI4547
Vwoven
p4548
sI4548
Vyolks
p4549
sI4549
Vprairie
p4550
sI4550
V\u201coh
p4551
sI4551
Vpenetrated
p4552
sI4552
Vwolfs
p4553
sI4553
Vpeeld
p4554
sI4554
Vsaluting
p4555
sI4555
Vsupporting
p4556
sI4556
Vchainlink
p4557
sI4557
Vsieve
p4558
sI4558
Vchange
p4559
sI4559
Vpillow
p4560
sI4560
Vuphill
p4561
sI4561
Vfirearm
p4562
sI4562
Vmarket
p4563
sI4563
Vstreetcar
p4564
sI4564
Vshaken
p4565
sI4565
Vselects
p4566
sI4566
Vtowers
p4567
sI4567
Vslinky
p4568
sI4568
Vbowler
p4569
sI4569
Vskaters
p4570
sI4570
Vhalave
p4571
sI4571
Vchip
p4572
sI4572
Vpicnic-like
p4573
sI4573
Vanteater
p4574
sI4574
Vunrealistically
p4575
sI4575
Vurinated
p4576
sI4576
Varmies
p4577
sI4577
Vpush-up
p4578
sI4578
Vdisgusted
p4579
sI4579
Vproduce
p4580
sI4580
Vhotplate
p4581
sI4581
Vcrepe
p4582
sI4582
Vwhenever
p4583
sI4583
Vcorona
p4584
sI4584
Vperfoming
p4585
sI4585
Vcolt
p4586
sI4586
Vhaircut
p4587
sI4587
Vcongregating
p4588
sI4588
Vcurly
p4589
sI4589
Vholing
p4590
sI4590
Vcurls
p4591
sI4591
Vstyrofoam
p4592
sI4592
Vshowered
p4593
sI4593
Vfeats
p4594
sI4594
V\u092c\u0940\u091a\u092e\u0947
p4595
sI4595
Vrockface
p4596
sI4596
Vtails
p4597
sI4597
Vprunes
p4598
sI4598
Vstreaks
p4599
sI4599
Vintrigued
p4600
sI4600
Vbursts
p4601
sI4601
Vhurried
p4602
sI4602
Vez
p4603
sI4603
Vkanu
p4604
sI4604
Vamusement
p4605
sI4605
Ver
p4606
sI4606
Vnavigating
p4607
sI4607
Vambushing
p4608
sI4608
Vocra
p4609
sI4609
Vlugging
p4610
sI4610
Vpompons
p4611
sI4611
Vdirectly
p4612
sI4612
Vsheep
p4613
sI4613
Vsheer
p4614
sI4614
Vappreciates
p4615
sI4615
Vthai
p4616
sI4616
Vbrother`s
p4617
sI4617
Vapples
p4618
sI4618
Vsaute
p4619
sI4619
Vlumpy
p4620
sI4620
Vterrific
p4621
sI4621
Vbreakdances
p4622
sI4622
Vtelephones
p4623
sI4623
Vtopping
p4624
sI4624
Vamerica
p4625
sI4625
V]
p4626
sI4626
Vwackes
p4627
sI4627
Vfirehat
p4628
sI4628
Vgroung
p4629
sI4629
V\u0932\u094b\u0917\u094b\u0915\u0947
p4630
sI4630
Vfifth
p4631
sI4631
Vsnack
p4632
sI4632
Vstain
p4633
sI4633
Vpices
p4634
sI4634
Vburst
p4635
sI4635
Vloudspeaker
p4636
sI4636
Vfascinated
p4637
sI4637
V3
p4638
sI4638
Vwhipped
p4639
sI4639
Vturle
p4640
sI4640
Vintsruments
p4641
sI4641
Vattaches
p4642
sI4642
Vbicyling
p4643
sI4643
Vhaunch
p4644
sI4644
Vdune-buggy
p4645
sI4645
Vwreaths
p4646
sI4646
Vsledding
p4647
sI4647
Vjerks
p4648
sI4648
Vjerky
p4649
sI4649
Vmooing
p4650
sI4650
Vfours
p4651
sI4651
Vpram
p4652
sI4652
Vperson'a
p4653
sI4653
Vroughing
p4654
sI4654
Vspooned
p4655
sI4655
Vcommander
p4656
sI4656
Vstewardess
p4657
sI4657
Vrotated
p4658
sI4658
Vmoneky
p4659
sI4659
Vmedia
p4660
sI4660
Vmedic
p4661
sI4661
Vangered
p4662
sI4662
Vstreams
p4663
sI4663
Vfoal
p4664
sI4664
Vfoam
p4665
sI4665
Vsevers
p4666
sI4666
Vcharges
p4667
sI4667
Vlivestock
p4668
sI4668
Vshouts
p4669
sI4669
Vjellyroll
p4670
sI4670
Vdeath
p4671
sI4671
Vmirrored
p4672
sI4672
Vdesktop
p4673
sI4673
Vtreatment
p4674
sI4674
Vpropped
p4675
sI4675
Vspectacular
p4676
sI4676
Vpsp
p4677
sI4677
Vfryer
p4678
sI4678
Vdislodges
p4679
sI4679
Vhacks
p4680
sI4680
Vrecorded
p4681
sI4681
Vforks
p4682
sI4682
Vwelsch
p4683
sI4683
Vwheat
p4684
sI4684
Vpylons
p4685
sI4685
Vsixth
p4686
sI4686
Vstrained
p4687
sI4687
Vseducing
p4688
sI4688
Vassemble
p4689
sI4689
Vcentral
p4690
sI4690
V'o
p4691
sI4691
Vrinspeed
p4692
sI4692
Vresuscitate
p4693
sI4693
Vcate
p4694
sI4694
Vwoman`s
p4695
sI4695
Vbrownish-gold
p4696
sI4696
Vpostures
p4697
sI4697
Vbucked
p4698
sI4698
Vsubdue
p4699
sI4699
Vmover
p4700
sI4700
Vhurtles
p4701
sI4701
Vforcing
p4702
sI4702
Vjuic
p4703
sI4703
Vwields
p4704
sI4704
Vchords
p4705
sI4705
Vsmooch
p4706
sI4706
Vcored
p4707
sI4707
Vembracing
p4708
sI4708
Voutlining
p4709
sI4709
Vsince
p4710
sI4710
Vmonth
p4711
sI4711
Vmessy
p4712
sI4712
Vreligious
p4713
sI4713
Vicons
p4714
sI4714
Vsurya
p4715
sI4715
Vbombarded
p4716
sI4716
Vfrankenstein
p4717
sI4717
Vliquidized
p4718
sI4718
Vgreen-piece
p4719
sI4719
Vring-tailed
p4720
sI4720
Vplayyed
p4721
sI4721
Vtussle
p4722
sI4722
Vthickness
p4723
sI4723
Vloose
p4724
sI4724
Vtusker
p4725
sI4725
Vanswers
p4726
sI4726
Vstraightener
p4727
sI4727
Vvegetarian
p4728
sI4728
Vcreepy
p4729
sI4729
Vhogs
p4730
sI4730
Vchunky
p4731
sI4731
Vteach
p4732
sI4732
Vlowering
p4733
sI4733
Vsweeps
p4734
sI4734
Vpeals
p4735
sI4735
Vukelele
p4736
sI4736
Vpinscher
p4737
sI4737
Vmenus
p4738
sI4738
Vtumbled
p4739
sI4739
Vpurring
p4740
sI4740
Vunbaked
p4741
sI4741
Vhorizontal
p4742
sI4742
Vegs
p4743
sI4743
Vscaring
p4744
sI4744
Vchicks
p4745
sI4745
Vhelp
p4746
sI4746
Vchicke
p4747
sI4747
Vtumbler
p4748
sI4748
Vtransplanting
p4749
sI4749
Vpredatory
p4750
sI4750
Vsketches
p4751
sI4751
Vsoapy
p4752
sI4752
Vsquishy
p4753
sI4753
Vjumproping
p4754
sI4754
Vtravels
p4755
sI4755
Voutrun
p4756
sI4756
Vmaths
p4757
sI4757
Vcheering
p4758
sI4758
Vautomobile
p4759
sI4759
Vblush
p4760
sI4760
Vinterviews
p4761
sI4761
Vponies
p4762
sI4762
Vreflected
p4763
sI4763
Vswarm
p4764
sI4764
Vpinned
p4765
sI4765
Vhundred
p4766
sI4766
Vbumba
p4767
sI4767
Vsquirts
p4768
sI4768
Vbowel
p4769
sI4769
Vperformers
p4770
sI4770
Vbride
p4771
sI4771
Vkart
p4772
sI4772
Vjuicy
p4773
sI4773
Vecstatically
p4774
sI4774
Vcontest
p4775
sI4775
Vofficers
p4776
sI4776
Vcutsa
p4777
sI4777
Vswallowing
p4778
sI4778
Vunstuck
p4779
sI4779
Vx-box
p4780
sI4780
Vfistful
p4781
sI4781
Vrhe
p4782
sI4782
Vtubes
p4783
sI4783
Vtuber
p4784
sI4784
Vhips
p4785
sI4785
Vgiggles
p4786
sI4786
Vmeticulously
p4787
sI4787
Vgiggled
p4788
sI4788
Vringers
p4789
sI4789
Vflesh
p4790
sI4790
Vabulance
p4791
sI4791
V3/4
p4792
sI4792
Vtoliet
p4793
sI4793
Vscanning
p4794
sI4794
Vknive
p4795
sI4795
Vinvisible
p4796
sI4796
Vzipper
p4797
sI4797
Vvegetable-looking
p4798
sI4798
Vshish-kabobs
p4799
sI4799
Varrest
p4800
sI4800
Vyakati
p4801
sI4801
Vbiking
p4802
sI4802
Vguide
p4803
sI4803
Vmakeshift
p4804
sI4804
Verectly
p4805
sI4805
Vceremonious
p4806
sI4806
Vunrolls
p4807
sI4807
Vred-tinted
p4808
sI4808
Vroasted
p4809
sI4809
Vscrunched
p4810
sI4810
Vritualistically
p4811
sI4811
V...
p4812
sI4812
Vtranslucent
p4813
sI4813
Vsignal
p4814
sI4814
Vsifts
p4815
sI4815
Vpopular
p4816
sI4816
Vsketch
p4817
sI4817
Vyolk
p4818
sI4818
Vblow-up
p4819
sI4819
Vpounding
p4820
sI4820
Vhi-five
p4821
sI4821
Vrub
p4822
sI4822
Vcirle
p4823
sI4823
Vnelly
p4824
sI4824
Vportico
p4825
sI4825
Vtracing
p4826
sI4826
Vcaretaker
p4827
sI4827
Vsmells
p4828
sI4828
Vharem
p4829
sI4829
Vdriverless
p4830
sI4830
Vreed
p4831
sI4831
Vreel
p4832
sI4832
Vcollapses
p4833
sI4833
Vcautiously
p4834
sI4834
Vsimilar
p4835
sI4835
Vhigh-speed
p4836
sI4836
Vkidney
p4837
sI4837
Vnab
p4838
sI4838
Vpolygon
p4839
sI4839
Vdogsleds
p4840
sI4840
Vnap
p4841
sI4841
Vpanday
p4842
sI4842
Vsmiles
p4843
sI4843
Vcrouching
p4844
sI4844
Vdrag
p4845
sI4845
Vformal
p4846
sI4846
Vboyis
p4847
sI4847
Vbleacher
p4848
sI4848
Vtoddlerdom
p4849
sI4849
Vberries
p4850
sI4850
Vunderbrush
p4851
sI4851
Vcozily
p4852
sI4852
Vasphalt
p4853
sI4853
Vjackolantern
p4854
sI4854
Vbiten
p4855
sI4855
Vtrough
p4856
sI4856
Vstiff
p4857
sI4857
Vpositions
p4858
sI4858
Vbutton
p4859
sI4859
Vmichael
p4860
sI4860
Vcomforts
p4861
sI4861
Vsledghammer
p4862
sI4862
Vlotioned
p4863
sI4863
Vboots
p4864
sI4864
Vcupcakes
p4865
sI4865
Vvampire
p4866
sI4866
Vplaye
p4867
sI4867
Vcommercial
p4868
sI4868
Vfocused
p4869
sI4869
Vwig
p4870
sI4870
Vpenalty
p4871
sI4871
Varsineo
p4872
sI4872
Vrinding
p4873
sI4873
Vstarter
p4874
sI4874
Vjustin
p4875
sI4875
Vdonut
p4876
sI4876
Vescaped
p4877
sI4877
Vfarm
p4878
sI4878
Votehr
p4879
sI4879
Vincluding
p4880
sI4880
Vyoungster
p4881
sI4881
Vskater
p4882
sI4882
Vmanican
p4883
sI4883
Vankles
p4884
sI4884
Villuminate
p4885
sI4885
Vmulticolored
p4886
sI4886
Vmeasure
p4887
sI4887
Vsecretly
p4888
sI4888
Vgridle
p4889
sI4889
Vreacts
p4890
sI4890
Vundressing
p4891
sI4891
Vcompletely
p4892
sI4892
Vcorgi
p4893
sI4893
Vthree-tiered
p4894
sI4894
Vice-cream
p4895
sI4895
Vexactly
p4896
sI4896
Vclanging
p4897
sI4897
Vbieber
p4898
sI4898
Vcartoonist
p4899
sI4899
Vbeg
p4900
sI4900
Vunboxes
p4901
sI4901
Vproviding
p4902
sI4902
Vsultry
p4903
sI4903
Vgrayish
p4904
sI4904
Vhand-feeding
p4905
sI4905
Vborder
p4906
sI4906
Veachother
p4907
sI4907
Vupset
p4908
sI4908
Vprickly
p4909
sI4909
Vemerging
p4910
sI4910
Vkiddie
p4911
sI4911
Vreactive
p4912
sI4912
Vcreamer
p4913
sI4913
Ventryway
p4914
sI4914
Vmurphey
p4915
sI4915
Vjoins
p4916
sI4916
Vhardwood
p4917
sI4917
Vhalving
p4918
sI4918
Vhumans
p4919
sI4919
Voperates
p4920
sI4920
Vtend
p4921
sI4921
Vtyre
p4922
sI4922
Vslicks
p4923
sI4923
Vtent
p4924
sI4924
Vrinses
p4925
sI4925
Vsniff
p4926
sI4926
Vak-47
p4927
sI4927
Vgingers
p4928
sI4928
Voanoe
p4929
sI4929
Vrehearsed
p4930
sI4930
Vkicke
p4931
sI4931
Vtexas
p4932
sI4932
Vcornering
p4933
sI4933
Vflubs
p4934
sI4934
Vstairmaster
p4935
sI4935
Vtweezed
p4936
sI4936
Vparty
p4937
sI4937
Vtapped
p4938
sI4938
Vfrequently
p4939
sI4939
Vsurfboard
p4940
sI4940
Vstretchers
p4941
sI4941
Vmotorcycling
p4942
sI4942
V'my
p4943
sI4943
Vmissle
p4944
sI4944
Vdais
p4945
sI4945
Vlogged
p4946
sI4946
Vextends
p4947
sI4947
Vfootballer
p4948
sI4948
Voar
p4949
sI4949
Vhistoric
p4950
sI4950
Vunseen
p4951
sI4951
Vintersection
p4952
sI4952
Vsizes
p4953
sI4953
Vcandy
p4954
sI4954
Vtablespoons
p4955
sI4955
Vpage
p4956
sI4956
Vde-scaled
p4957
sI4957
Vscuffle
p4958
sI4958
Vlibrary
p4959
sI4959
Va..man..plays
p4960
sI4960
Ve-mail
p4961
sI4961
Vreaching
p4962
sI4962
Vpersuades
p4963
sI4963
Vrecognized
p4964
sI4964
Vtoppings
p4965
sI4965
Veatables
p4966
sI4966
Vbeign
p4967
sI4967
Vreptile
p4968
sI4968
Vpistols
p4969
sI4969
Vlouvered
p4970
sI4970
Vartists
p4971
sI4971
Vdogfood
p4972
sI4972
Vastro
p4973
sI4973
Vtissues
p4974
sI4974
Vndog
p4975
sI4975
Vtwist
p4976
sI4976
V\u092a\u0948\u0930
p4977
sI4977
Vstay
p4978
sI4978
Vo'lantern
p4979
sI4979
Vshopped
p4980
sI4980
Vmackerel
p4981
sI4981
Vguinna
p4982
sI4982
Vwhose
p4983
sI4983
Vswab
p4984
sI4984
Vtremors
p4985
sI4985
Vbays
p4986
sI4986
Vtrousers
p4987
sI4987
Vlongways
p4988
sI4988
Vfists
p4989
sI4989
Vconvenience
p4990
sI4990
Veven
p4991
sI4991
Vspouses
p4992
sI4992
Vtrapping
p4993
sI4993
Vwreck
p4994
sI4994
Vconfetti-like
p4995
sI4995
Vjoin
p4996
sI4996
Vbicycle..
p4997
sI4997
Vactive
p4998
sI4998
V100
p4999
sI4999
Vtapes
p5000
sI5000
Vjams
p5001
sI5001
Vrests
p5002
sI5002
Vpiercing
p5003
sI5003
Vice-cubes
p5004
sI5004
Vguests
p5005
sI5005
Vuncorking
p5006
sI5006
Vwarp
p5007
sI5007
Valigned
p5008
sI5008
Vdefecated
p5009
sI5009
Vdefecates
p5010
sI5010
Vsizzles
p5011
sI5011
Vblips
p5012
sI5012
Vpoint
p5013
sI5013
Vadvancing
p5014
sI5014
Vsideline
p5015
sI5015
Vamazing
p5016
sI5016
Vattempt
p5017
sI5017
Vgurneys
p5018
sI5018
Vdribled
p5019
sI5019
Vovertakes
p5020
sI5020
Vunfolds
p5021
sI5021
V\u0916\u0947\u0932\u093e
p5022
sI5022
Vwindshield
p5023
sI5023
Vpersonal
p5024
sI5024
Vsoaking
p5025
sI5025
Vcarve
p5026
sI5026
Vworkout
p5027
sI5027
Vleaner
p5028
sI5028
Varrested
p5029
sI5029
Vmounts
p5030
sI5030
Vbone
p5031
sI5031
Vcalmly
p5032
sI5032
Vdurability
p5033
sI5033
Vdawn
p5034
sI5034
Vcontent
p5035
sI5035
Vdrivong
p5036
sI5036
Vsurprise
p5037
sI5037
Vflows
p5038
sI5038
Vventriloquy
p5039
sI5039
Vcomforted
p5040
sI5040
Vdisappearing
p5041
sI5041
Vhood
p5042
sI5042
Vboating
p5043
sI5043
Vmatter
p5044
sI5044
Vsilly
p5045
sI5045
Vextracting
p5046
sI5046
Vgutar
p5047
sI5047
Vbarehands
p5048
sI5048
Vspindles
p5049
sI5049
Vseem
p5050
sI5050
Vmint
p5051
sI5051
Vtells
p5052
sI5052
Vchees
p5053
sI5053
Vscaped
p5054
sI5054
Vwrists
p5055
sI5055
Vannoyed
p5056
sI5056
Vdeftly
p5057
sI5057
Vseadoo
p5058
sI5058
Vjudges
p5059
sI5059
Vbobs
p5060
sI5060
Vtiled
p5061
sI5061
Vbay
p5062
sI5062
Vsoftly
p5063
sI5063
Vtroop
p5064
sI5064
Vbak
p5065
sI5065
Vsubject
p5066
sI5066
Vsaid
p5067
sI5067
Vshaved
p5068
sI5068
Vartificial
p5069
sI5069
Vnarrates
p5070
sI5070
Vshaves
p5071
sI5071
Vhorsemen
p5072
sI5072
Vwandering
p5073
sI5073
Vpeddling
p5074
sI5074
Vwalkign
p5075
sI5075
Vconfronted
p5076
sI5076
Vdrilled
p5077
sI5077
Vinterest
p5078
sI5078
Ventered
p5079
sI5079
Vidol
p5080
sI5080
Vnutshells
p5081
sI5081
Vugly
p5082
sI5082
Vanchor
p5083
sI5083
Vfaked
p5084
sI5084
Vgrown
p5085
sI5085
Vshimmering
p5086
sI5086
Vbottled
p5087
sI5087
Vfailing
p5088
sI5088
Vdrowsily
p5089
sI5089
Voutmaneuvering
p5090
sI5090
Vteether
p5091
sI5091
Vmeatn
p5092
sI5092
Vpillar
p5093
sI5093
Vdeal
p5094
sI5094
Vformulas
p5095
sI5095
Vwok-like
p5096
sI5096
Vpain
p5097
sI5097
Vsleigh
p5098
sI5098
Vbolt
p5099
sI5099
Vautomatically
p5100
sI5100
Vfrightened
p5101
sI5101
Vinspected
p5102
sI5102
Vprevents
p5103
sI5103
Vhorrifying
p5104
sI5104
Vhurriedly
p5105
sI5105
Vabusing
p5106
sI5106
Vclassic
p5107
sI5107
Vshimmied
p5108
sI5108
Vmarinated
p5109
sI5109
Vlocality
p5110
sI5110
Vhanded
p5111
sI5111
Vgarland
p5112
sI5112
Vdies
p5113
sI5113
Vauthorities
p5114
sI5114
Vstripping
p5115
sI5115
Vrelieve
p5116
sI5116
Vwater-jug
p5117
sI5117
Vskii
p5118
sI5118
Vpeole
p5119
sI5119
Vmill
p5120
sI5120
Vfather
p5121
sI5121
Vreptiles
p5122
sI5122
Vsmartphone
p5123
sI5123
Vforked
p5124
sI5124
Vstaples
p5125
sI5125
Vlimes
p5126
sI5126
Vdig
p5127
sI5127
Vitem
p5128
sI5128
Vdip
p5129
sI5129
Vshave
p5130
sI5130
V\u0932\u0921\u093c\u0915\u093e
p5131
sI5131
Vgrowls
p5132
sI5132
Vscampering
p5133
sI5133
Vmussels
p5134
sI5134
Vthrashes
p5135
sI5135
Vbattling
p5136
sI5136
Vbot
p5137
sI5137
Vmassage
p5138
sI5138
Vsaki
p5139
sI5139
Vtroops
p5140
sI5140
Vinsides
p5141
sI5141
Vstenographers
p5142
sI5142
Vyoghurt
p5143
sI5143
Vcheckout
p5144
sI5144
Vsharing
p5145
sI5145
Vemoting
p5146
sI5146
Vfreestyle
p5147
sI5147
Vcapturing
p5148
sI5148
Vwalled
p5149
sI5149
Vavoiding
p5150
sI5150
Vsous
p5151
sI5151
Vsour
p5152
sI5152
V\u090f\u0915
p5153
sI5153
Varrive
p5154
sI5154
Vswimmingpool
p5155
sI5155
Vscramblers
p5156
sI5156
Vmap
p5157
sI5157
Vstaying
p5158
sI5158
Vstrokes
p5159
sI5159
Vgelatin
p5160
sI5160
Voutline
p5161
sI5161
Vmaybe
p5162
sI5162
Vstew-sized
p5163
sI5163
Vswitch
p5164
sI5164
Vcute
p5165
sI5165
Vmotorcylist
p5166
sI5166
Vterrace
p5167
sI5167
Vsmoothie
p5168
sI5168
Vmail
p5169
sI5169
Vmain
p5170
sI5170
Vviews
p5171
sI5171
Vkilled
p5172
sI5172
Vfudge
p5173
sI5173
Vshowcasing
p5174
sI5174
Vbookshop
p5175
sI5175
Velephante
p5176
sI5176
Vmorning
p5177
sI5177
Vspiking
p5178
sI5178
Vhomme
p5179
sI5179
Vjackson
p5180
sI5180
Vleeks
p5181
sI5181
Vcorrect
p5182
sI5182
Vpumping
p5183
sI5183
Vcough
p5184
sI5184
Vdrizzling
p5185
sI5185
Vmesh
p5186
sI5186
Vfleeing
p5187
sI5187
Vpillsbury
p5188
sI5188
Vmid-air
p5189
sI5189
Vcheesy
p5190
sI5190
Vparticipated
p5191
sI5191
Vbroadcast
p5192
sI5192
Veyed
p5193
sI5193
Vingedients
p5194
sI5194
V13
p5195
sI5195
Vgigantic
p5196
sI5196
Vstrolls
p5197
sI5197
Vvoices
p5198
sI5198
Vdash
p5199
sI5199
Vkick-boxing
p5200
sI5200
Vkevin
p5201
sI5201
Vhooded
p5202
sI5202
Vanswering
p5203
sI5203
Vsquad
p5204
sI5204
V200
p5205
sI5205
Vtheatre
p5206
sI5206
Vpaid
p5207
sI5207
Vtugging
p5208
sI5208
Vsurprising
p5209
sI5209
Vtakig
p5210
sI5210
Vcurled
p5211
sI5211
Vgrittle
p5212
sI5212
Vstomp
p5213
sI5213
Vnearly
p5214
sI5214
Vgel
p5215
sI5215
Vsideway
p5216
sI5216
Vback-flip
p5217
sI5217
Vfinishing
p5218
sI5218
Vpebbly
p5219
sI5219
Vsludge
p5220
sI5220
Vcathes
p5221
sI5221
Vseal
p5222
sI5222
Vpuma
p5223
sI5223
Vswoard
p5224
sI5224
Vornament
p5225
sI5225
Vforecast
p5226
sI5226
Vpump
p5227
sI5227
Vgeometric
p5228
sI5228
Vsunbather
p5229
sI5229
Vdates
p5230
sI5230
Vaccording
p5231
sI5231
Vsomewhere
p5232
sI5232
Vhesitantly
p5233
sI5233
Vcanced
p5234
sI5234
Vtabel
p5235
sI5235
Vundershirt
p5236
sI5236
Vdisembarks
p5237
sI5237
Voffered
p5238
sI5238
Vhelcopters
p5239
sI5239
Vromping
p5240
sI5240
Vslapping
p5241
sI5241
Vbathi
p5242
sI5242
Vloosing
p5243
sI5243
Vreceptacle
p5244
sI5244
Vassist
p5245
sI5245
Vlayup
p5246
sI5246
Vchoppoing
p5247
sI5247
Vbumping
p5248
sI5248
Vcameramen
p5249
sI5249
Vadjustments
p5250
sI5250
Vforecasting
p5251
sI5251
Vpissing
p5252
sI5252
Vguniea
p5253
sI5253
Vtiming/temperature
p5254
sI5254
Vpups
p5255
sI5255
Vcayenne
p5256
sI5256
Vcrocodiles
p5257
sI5257
Vgrip
p5258
sI5258
Vschwarzenegger
p5259
sI5259
Vgrid
p5260
sI5260
Vgrin
p5261
sI5261
Vstsnd
p5262
sI5262
Valternated
p5263
sI5263
Vimages
p5264
sI5264
Vorganizing
p5265
sI5265
Vstew-like
p5266
sI5266
Vseeding
p5267
sI5267
Vexpressing
p5268
sI5268
Vairways
p5269
sI5269
Vroaming
p5270
sI5270
Vaide
p5271
sI5271
Vstylish
p5272
sI5272
Visland
p5273
sI5273
Vlifing
p5274
sI5274
Vliquior
p5275
sI5275
Vroam
p5276
sI5276
Vcoupon
p5277
sI5277
Vimitates
p5278
sI5278
Vdowned
p5279
sI5279
Vdistracted
p5280
sI5280
Venough
p5281
sI5281
Vshrugs
p5282
sI5282
Vbunnys
p5283
sI5283
Vstrawberry
p5284
sI5284
Vjabbing
p5285
sI5285
Vvideos
p5286
sI5286
Vacetate
p5287
sI5287
Vfilm
p5288
sI5288
Vfill
p5289
sI5289
Vhybrid
p5290
sI5290
Voutfield
p5291
sI5291
Vsprints
p5292
sI5292
Vdecorates
p5293
sI5293
Vchris
p5294
sI5294
Vwets
p5295
sI5295
Vhaired
p5296
sI5296
Vdisassembled
p5297
sI5297
Vexpressions
p5298
sI5298
Vpreserves
p5299
sI5299
Vfoured
p5300
sI5300
Vpuffs
p5301
sI5301
Vhitchhikes
p5302
sI5302
Vrambunctious
p5303
sI5303
Vpurrs
p5304
sI5304
Vmarinading
p5305
sI5305
Vknifes
p5306
sI5306
Vburger
p5307
sI5307
Vvideogame
p5308
sI5308
Vaffectionately
p5309
sI5309
Vinvestigating
p5310
sI5310
Vgorrilla
p5311
sI5311
Vantagonizing
p5312
sI5312
Vlasagna
p5313
sI5313
Vmilky
p5314
sI5314
V9mm
p5315
sI5315
Vskids
p5316
sI5316
Vmedics
p5317
sI5317
Vtransit
p5318
sI5318
Vcomparing
p5319
sI5319
Vstaggering
p5320
sI5320
Vparticular
p5321
sI5321
Vpatrols
p5322
sI5322
Vsudden
p5323
sI5323
Vded
p5324
sI5324
Vpurchases
p5325
sI5325
Vmargerine
p5326
sI5326
Vshare
p5327
sI5327
Vrainstorm
p5328
sI5328
Vdrained
p5329
sI5329
Vshanked
p5330
sI5330
Vcomfort
p5331
sI5331
Vunharmed
p5332
sI5332
Vsacred
p5333
sI5333
Vfrilly
p5334
sI5334
Vresponse
p5335
sI5335
Vbathed
p5336
sI5336
Vupholstered
p5337
sI5337
Vjalapeo
p5338
sI5338
Vindustrial
p5339
sI5339
Vmessed
p5340
sI5340
Vyamaimo
p5341
sI5341
Vpent
p5342
sI5342
V22
p5343
sI5343
Vsodium
p5344
sI5344
Vpyrex
p5345
sI5345
Vhandheld
p5346
sI5346
Vhurting
p5347
sI5347
Vmales
p5348
sI5348
Vwalls
p5349
sI5349
Veasily
p5350
sI5350
Vevade
p5351
sI5351
Vmicro
p5352
sI5352
Vrepeating
p5353
sI5353
Vclamp
p5354
sI5354
Vwiggling
p5355
sI5355
Vextended
p5356
sI5356
Vcomic
p5357
sI5357
Vdejectedly
p5358
sI5358
Vcyclone
p5359
sI5359
Vdribbled
p5360
sI5360
Vbenefits
p5361
sI5361
Vdone
p5362
sI5362
Vrazor
p5363
sI5363
Vpaino
p5364
sI5364
Vleast
p5365
sI5365
Vhollows
p5366
sI5366
Vmama
p5367
sI5367
Vbegetables
p5368
sI5368
Vmuscles
p5369
sI5369
Vstire
p5370
sI5370
Vtom
p5371
sI5371
Vbelieve
p5372
sI5372
Vcolander
p5373
sI5373
Vtreated
p5374
sI5374
Vdeclare
p5375
sI5375
Vcreases
p5376
sI5376
Vtrudges
p5377
sI5377
Vmost
p5378
sI5378
Vtri-cycle
p5379
sI5379
Voots
p5380
sI5380
Vsparrow
p5381
sI5381
Vwailing
p5382
sI5382
Vcrocheted
p5383
sI5383
Vhopped
p5384
sI5384
Vlegionnaire
p5385
sI5385
Vtownspeople
p5386
sI5386
Vtouchscreen
p5387
sI5387
Vexpress
p5388
sI5388
Vsill
p5389
sI5389
Vmerchandise
p5390
sI5390
Vmotorcycles
p5391
sI5391
Vhalved
p5392
sI5392
Vvisiting
p5393
sI5393
Vsmallest
p5394
sI5394
Venvelopes
p5395
sI5395
Vvolleys
p5396
sI5396
Vpagoda
p5397
sI5397
Vcubed
p5398
sI5398
Vnewsdesk
p5399
sI5399
Vrag
p5400
sI5400
Vrecycling
p5401
sI5401
Vpanicking
p5402
sI5402
Vbongs
p5403
sI5403
Vmikes
p5404
sI5404
Vchiseled
p5405
sI5405
Vassorted
p5406
sI5406
Vkathe
p5407
sI5407
Vbill
p5408
sI5408
Vskiff
p5409
sI5409
Vfun
p5410
sI5410
Vinfront
p5411
sI5411
Vviolently
p5412
sI5412
Vscrews
p5413
sI5413
Vfacade
p5414
sI5414
Vbutcher
p5415
sI5415
Vtupperware
p5416
sI5416
Vgilmour
p5417
sI5417
Vromps
p5418
sI5418
Vshaded
p5419
sI5419
Vflags
p5420
sI5420
Vcircling
p5421
sI5421
Vshouting
p5422
sI5422
Vcue
p5423
sI5423
Veaster
p5424
sI5424
Vexcited
p5425
sI5425
Vbin
p5426
sI5426
Vcompetitively
p5427
sI5427
Vknock
p5428
sI5428
Vflue
p5429
sI5429
Vhelicopter-toy
p5430
sI5430
Vknawing
p5431
sI5431
Vpelt
p5432
sI5432
V\u0938\u0947
p5433
sI5433
Vceremonisl
p5434
sI5434
Vpea
p5435
sI5435
Vlounged
p5436
sI5436
Vricearoni
p5437
sI5437
Vlounges
p5438
sI5438
Viceskates
p5439
sI5439
Vpiles
p5440
sI5440
Voatmeal
p5441
sI5441
Vdrama
p5442
sI5442
Vharassed
p5443
sI5443
Vframed
p5444
sI5444
Vsoaping
p5445
sI5445
Vlesson
p5446
sI5446
Vtortila/
p5447
sI5447
Vtree-lined
p5448
sI5448
Vgriddle-like
p5449
sI5449
Vplanes
p5450
sI5450
Vjumbo
p5451
sI5451
Vgroove
p5452
sI5452
Vrecognition
p5453
sI5453
Vgeese
p5454
sI5454
Vstripped
p5455
sI5455
Vspoonfull
p5456
sI5456
Vscurrying
p5457
sI5457
Vfiretruck
p5458
sI5458
Vroping
p5459
sI5459
Vpresenting
p5460
sI5460
Vdiscards
p5461
sI5461
Vbrinjals
p5462
sI5462
Voctopus-shaped
p5463
sI5463
Vpeanut
p5464
sI5464
Vsaxaphone
p5465
sI5465
Vashore
p5466
sI5466
Vdessert
p5467
sI5467
Vannouncing
p5468
sI5468
Vchokariyo
p5469
sI5469
Vsquezzed
p5470
sI5470
Vanthem
p5471
sI5471
Vpaddle
p5472
sI5472
Vwiggles
p5473
sI5473
Vsharks
p5474
sI5474
Vexchange
p5475
sI5475
Varond
p5476
sI5476
Vtoughing
p5477
sI5477
Vstalks
p5478
sI5478
Vnames
p5479
sI5479
Vchi
p5480
sI5480
Vcut-out
p5481
sI5481
Vbutler
p5482
sI5482
Vcharcoal
p5483
sI5483
Vcostmetics
p5484
sI5484
Vbilled
p5485
sI5485
Vleattuce
p5486
sI5486
Vtunnel
p5487
sI5487
Vstations
p5488
sI5488
Vpedaled
p5489
sI5489
Vsnacks
p5490
sI5490
Vsanding
p5491
sI5491
Vluggag
p5492
sI5492
Vexclaims
p5493
sI5493
Vnative
p5494
sI5494
Vlamp
p5495
sI5495
Vsnipping
p5496
sI5496
Vprofile
p5497
sI5497
Vjeroba
p5498
sI5498
Vtressel
p5499
sI5499
Vterrier
p5500
sI5500
Vutility-like
p5501
sI5501
Vrices
p5502
sI5502
Vmeter
p5503
sI5503
Vtoddled
p5504
sI5504
Vtwirls
p5505
sI5505
Vwinning
p5506
sI5506
Vinoculations
p5507
sI5507
Vpreschool
p5508
sI5508
Vstraddling
p5509
sI5509
Vslumped
p5510
sI5510
Vopining
p5511
sI5511
Vflushing
p5512
sI5512
Vwindsurfing
p5513
sI5513
Vstenographer
p5514
sI5514
Vsalami
p5515
sI5515
Vbarriers
p5516
sI5516
Vstaning
p5517
sI5517
Vteethes
p5518
sI5518
Vnut
p5519
sI5519
Vcabin
p5520
sI5520
Vfoamy
p5521
sI5521
Vroof-top
p5522
sI5522
Vlightening
p5523
sI5523
Vcurves
p5524
sI5524
Vpitiable
p5525
sI5525
Vmammals
p5526
sI5526
Vreciting
p5527
sI5527
Vcage-like
p5528
sI5528
Vyellowish-brown
p5529
sI5529
Vnicholson
p5530
sI5530
Vplanks
p5531
sI5531
Vdoughs
p5532
sI5532
Vsettee
p5533
sI5533
Vhamlet
p5534
sI5534
Vprancing
p5535
sI5535
Vdiscovers
p5536
sI5536
Vbeachgoers
p5537
sI5537
Vstripes
p5538
sI5538
Vstriped
p5539
sI5539
Vbath-tub
p5540
sI5540
Vexcretes
p5541
sI5541
Vcalling
p5542
sI5542
Vshelling
p5543
sI5543
Vgunman
p5544
sI5544
Vwalking-way
p5545
sI5545
Vnational
p5546
sI5546
Vclearing
p5547
sI5547
Vnudged
p5548
sI5548
Vdeliver
p5549
sI5549
Vnudges
p5550
sI5550
Vinstant
p5551
sI5551
Vequal
p5552
sI5552
Vtrips
p5553
sI5553
Vswallow
p5554
sI5554
Vka-bar
p5555
sI5555
Votherwise
p5556
sI5556
Vlaugh
p5557
sI5557
Vbespectacled
p5558
sI5558
Vantlers
p5559
sI5559
Vreceived
p5560
sI5560
Vpreforming
p5561
sI5561
Vangles
p5562
sI5562
Vbulb
p5563
sI5563
Vsquid
p5564
sI5564
Varabic
p5565
sI5565
Vsequentially
p5566
sI5566
Vfacet
p5567
sI5567
Vshreded
p5568
sI5568
Vpowerboat
p5569
sI5569
Vkidnapping
p5570
sI5570
Voranges
p5571
sI5571
Vinjures
p5572
sI5572
Vstraightness
p5573
sI5573
Vmuscle
p5574
sI5574
Vrestuarant
p5575
sI5575
Vdomestic
p5576
sI5576
Vprotecting
p5577
sI5577
Vterrorizes
p5578
sI5578
Vbarbed-wire
p5579
sI5579
Vnewsstand
p5580
sI5580
Vhousekeeper
p5581
sI5581
Vjournalist
p5582
sI5582
Vchick
p5583
sI5583
Vpropel
p5584
sI5584
Vscurried
p5585
sI5585
Vstuffs
p5586
sI5586
Vproper
p5587
sI5587
Vshrub
p5588
sI5588
Vflowerette
p5589
sI5589
Vmasked
p5590
sI5590
Vspeak
p5591
sI5591
Vpetty
p5592
sI5592
Vperiodically
p5593
sI5593
Vpanel
p5594
sI5594
Vbreak-danced
p5595
sI5595
Vintroduces
p5596
sI5596
Vshiitake
p5597
sI5597
Vdunked
p5598
sI5598
Vvoilin
p5599
sI5599
V\u0939\u0948
p5600
sI5600
Velastic
p5601
sI5601
Vrushes
p5602
sI5602
Vbum
p5603
sI5603
Vbookshelf
p5604
sI5604
Vfire-fox
p5605
sI5605
Vsquat
p5606
sI5606
Vtortila
p5607
sI5607
Vtopless
p5608
sI5608
Vwide-eyed
p5609
sI5609
Vproceeds
p5610
sI5610
V45
p5611
sI5611
Vspecial
p5612
sI5612
Vhiker
p5613
sI5613
Vevery
p5614
sI5614
Vconfetti
p5615
sI5615
Vguiding
p5616
sI5616
Venjoy
p5617
sI5617
Vthrought
p5618
sI5618
Vwater-pot
p5619
sI5619
Vsurrounding
p5620
sI5620
Vshining
p5621
sI5621
Vliberty
p5622
sI5622
Vgreating
p5623
sI5623
Vconduct
p5624
sI5624
Vinjections
p5625
sI5625
Ventertains
p5626
sI5626
Vhundreds
p5627
sI5627
Vmozzarella
p5628
sI5628
Vmidway
p5629
sI5629
Vmeats
p5630
sI5630
Vpuled
p5631
sI5631
Vspiky
p5632
sI5632
Vbcycle
p5633
sI5633
Vmush
p5634
sI5634
Vconnecticut
p5635
sI5635
Vpouch
p5636
sI5636
Vshetty
p5637
sI5637
Vmarsupial
p5638
sI5638
Vma
p5639
sI5639
Vmt
p5640
sI5640
Vdecorative
p5641
sI5641
Vgadgets
p5642
sI5642
Vmas-arum
p5643
sI5643
Vrhinoceros
p5644
sI5644
Vrawing
p5645
sI5645
Vkebabs
p5646
sI5646
Vpokes
p5647
sI5647
Vlump
p5648
sI5648
Vtidying
p5649
sI5649
Vparallel
p5650
sI5650
Vgirders
p5651
sI5651
Venter
p5652
sI5652
Vvapor
p5653
sI5653
Vunsteady
p5654
sI5654
Vclench
p5655
sI5655
V\u201cyes
p5656
sI5656
Vkickboxes
p5657
sI5657
Vtourist
p5658
sI5658
Vprevented
p5659
sI5659
Vpinkish
p5660
sI5660
Vcelebrating
p5661
sI5661
Vrefriderator
p5662
sI5662
Vgoo
p5663
sI5663
Vstunting
p5664
sI5664
Vgod
p5665
sI5665
Vstringer
p5666
sI5666
Vinot
p5667
sI5667
Vscopes
p5668
sI5668
Vcarcass
p5669
sI5669
Vchisels
p5670
sI5670
Vformation
p5671
sI5671
Vacrobat
p5672
sI5672
Voutfits
p5673
sI5673
Vrand
p5674
sI5674
Valready
p5675
sI5675
Vdiscotheque
p5676
sI5676
Vmotorcar
p5677
sI5677
Vweightlifting
p5678
sI5678
Vwestern
p5679
sI5679
Vnudging
p5680
sI5680
Vreclining
p5681
sI5681
Vroles
p5682
sI5682
Vclasses
p5683
sI5683
Vdonkey
p5684
sI5684
Vrae
p5685
sI5685
Vhuddling
p5686
sI5686
Vpompoms
p5687
sI5687
Vgranulated
p5688
sI5688
Vleafs
p5689
sI5689
Vriden
p5690
sI5690
Vfoil-lined
p5691
sI5691
Vthough
p5692
sI5692
Vtormenting
p5693
sI5693
Vtreats
p5694
sI5694
Vflop
p5695
sI5695
Vfreeway
p5696
sI5696
Vswerves
p5697
sI5697
Vlabels
p5698
sI5698
Vhousefly
p5699
sI5699
Vpopt
p5700
sI5700
Vpeasants
p5701
sI5701
Vcarbine
p5702
sI5702
Vexcitedly
p5703
sI5703
Vshutting
p5704
sI5704
Vboulon
p5705
sI5705
Vdisturbing
p5706
sI5706
Vslotted
p5707
sI5707
Vroto-tiller
p5708
sI5708
Vcontinually
p5709
sI5709
Vmug
p5710
sI5710
Vapproach
p5711
sI5711
Vsipper
p5712
sI5712
Vextracts
p5713
sI5713
Vsheff
p5714
sI5714
Vparticipating
p5715
sI5715
Vhysterically
p5716
sI5716
Vconference
p5717
sI5717
Vcurried
p5718
sI5718
Vcontainers
p5719
sI5719
Vaffixed
p5720
sI5720
Vcracker
p5721
sI5721
Vprocedure
p5722
sI5722
Vhandrail
p5723
sI5723
Vinteracts
p5724
sI5724
Vpreps
p5725
sI5725
Vcomplex
p5726
sI5726
Vgreeted
p5727
sI5727
Vhalf-moon
p5728
sI5728
Vdozing
p5729
sI5729
Vfistfight
p5730
sI5730
Vgretting
p5731
sI5731
Vslammed
p5732
sI5732
Vtransporting
p5733
sI5733
Vteenaged
p5734
sI5734
Vfistfighting
p5735
sI5735
Vturquoise
p5736
sI5736
Vbands
p5737
sI5737
Vdescending
p5738
sI5738
Vappearing
p5739
sI5739
Vsuper-wide
p5740
sI5740
Vplaer
p5741
sI5741
Vmeters
p5742
sI5742
Vescape
p5743
sI5743
Vtutorial
p5744
sI5744
Vplantain
p5745
sI5745
Vpeguins
p5746
sI5746
Vbrawl
p5747
sI5747
Vwa7ter
p5748
sI5748
Vcoiled
p5749
sI5749
Vdials
p5750
sI5750
Vfurtado
p5751
sI5751
Vgil
p5752
sI5752
Vtree-trunk
p5753
sI5753
Vmedium
p5754
sI5754
Vblow-torching
p5755
sI5755
Vwobbles
p5756
sI5756
Vhitch-hike
p5757
sI5757
Vlatch
p5758
sI5758
Vcobbled
p5759
sI5759
Vswatted
p5760
sI5760
Vchuckling
p5761
sI5761
Vsqueals
p5762
sI5762
Vtriumphant
p5763
sI5763
Vvigorously
p5764
sI5764
Vspanked
p5765
sI5765
Vfasten
p5766
sI5766
Vmulti-serve
p5767
sI5767
Vfocus
p5768
sI5768
Venvironment
p5769
sI5769
Vcoos
p5770
sI5770
Vtrident
p5771
sI5771
Vsloppy
p5772
sI5772
Vbastng
p5773
sI5773
Vimpressive
p5774
sI5774
Vdrier
p5775
sI5775
Veights
p5776
sI5776
Vbake
p5777
sI5777
Vmachinthi
p5778
sI5778
Vhalf-naked
p5779
sI5779
Vtuxedo
p5780
sI5780
Vswallowed
p5781
sI5781
Vbulbs
p5782
sI5782
Vwicketkeeper
p5783
sI5783
Vbarbequed
p5784
sI5784
Vundersea
p5785
sI5785
Vands
p5786
sI5786
Vclicking
p5787
sI5787
Vemployee
p5788
sI5788
Vchocolaty
p5789
sI5789
Vedible
p5790
sI5790
Vaircrafts
p5791
sI5791
Vmodifies
p5792
sI5792
Vsemi-automatic
p5793
sI5793
Vrun-way
p5794
sI5794
Vrespective
p5795
sI5795
Vflattens
p5796
sI5796
Vbirthday
p5797
sI5797
Vreaper
p5798
sI5798
Vmotions
p5799
sI5799
Vfirring
p5800
sI5800
Vfarmer
p5801
sI5801
Vcling
p5802
sI5802
Vlorises
p5803
sI5803
Vwagon
p5804
sI5804
Vbusty
p5805
sI5805
Vsweet-potato
p5806
sI5806
Vrecycables
p5807
sI5807
Vpersian
p5808
sI5808
Vprocessed
p5809
sI5809
Vattended
p5810
sI5810
Vbolts
p5811
sI5811
Vmanikin
p5812
sI5812
Vroosters
p5813
sI5813
Vflare
p5814
sI5814
Vturf
p5815
sI5815
Vsaucers
p5816
sI5816
Vcreepily
p5817
sI5817
Vsomene
p5818
sI5818
Vvandalizing
p5819
sI5819
Vfetches
p5820
sI5820
Vwaterpark
p5821
sI5821
Vgiven
p5822
sI5822
Vmolded
p5823
sI5823
Vcooling
p5824
sI5824
Vcircl
p5825
sI5825
Vmasalo
p5826
sI5826
Vsix-pack
p5827
sI5827
Vreleases
p5828
sI5828
Vcubing
p5829
sI5829
Vcops
p5830
sI5830
Vcirculates
p5831
sI5831
Vholder
p5832
sI5832
Vanf
p5833
sI5833
Vregister
p5834
sI5834
Vskate-scooter
p5835
sI5835
Vant
p5836
sI5836
Vsells
p5837
sI5837
V\u201d
p5838
sI5838
Vroundish
p5839
sI5839
Vsure
p5840
sI5840
Vquantity
p5841
sI5841
Vrecipe
p5842
sI5842
Vspacey
p5843
sI5843
Vsuryanamaskar
p5844
sI5844
Vlighted
p5845
sI5845
Vhooting
p5846
sI5846
Vjazz
p5847
sI5847
Vbareback
p5848
sI5848
Vhedge
p5849
sI5849
Vreveal
p5850
sI5850
Vmewed
p5851
sI5851
Vinnards
p5852
sI5852
Vignores
p5853
sI5853
Vcollects
p5854
sI5854
Vrolercoaster
p5855
sI5855
Vways
p5856
sI5856
Vsungalsses
p5857
sI5857
Vlorie
p5858
sI5858
Vbunks
p5859
sI5859
Vhunched
p5860
sI5860
Vtrio
p5861
sI5861
Vpop
p5862
sI5862
Vpencilling
p5863
sI5863
Vblend
p5864
sI5864
Vcords
p5865
sI5865
Vschoolboy
p5866
sI5866
Vbreak-dance
p5867
sI5867
Vsquirrels
p5868
sI5868
Vslippery
p5869
sI5869
Vparatha
p5870
sI5870
Vagitates
p5871
sI5871
Vfender
p5872
sI5872
Vcoarsely
p5873
sI5873
Vshifts
p5874
sI5874
Vcatfish
p5875
sI5875
Visle
p5876
sI5876
Vaross
p5877
sI5877
Vweed
p5878
sI5878
Vcaressing
p5879
sI5879
Vrecital
p5880
sI5880
Vsculptors
p5881
sI5881
Vbodies
p5882
sI5882
Vclou
p5883
sI5883
Vannouncement
p5884
sI5884
Vwomans
p5885
sI5885
Vseems
p5886
sI5886
Vsamples
p5887
sI5887
Vengulfed
p5888
sI5888
Vstyled
p5889
sI5889
Vwrastle
p5890
sI5890
Vsternly
p5891
sI5891
Vsieved
p5892
sI5892
Vintact
p5893
sI5893
Vprovided
p5894
sI5894
Vprovides
p5895
sI5895
Vcommunicate
p5896
sI5896
Vpom-poms
p5897
sI5897
Voh
p5898
sI5898
Vox
p5899
sI5899
Vot
p5900
sI5900
Vknits
p5901
sI5901
Vgarb
p5902
sI5902
Vtiding
p5903
sI5903
Vrising
p5904
sI5904
Vfindertip
p5905
sI5905
Vstrongly
p5906
sI5906
Vpadling
p5907
sI5907
V5
p5908
sI5908
Vsymbol
p5909
sI5909
Vdashi
p5910
sI5910
Vserious
p5911
sI5911
Vcalls
p5912
sI5912
Vwife
p5913
sI5913
Vsongs
p5914
sI5914
Voff-road
p5915
sI5915
Vfollow
p5916
sI5916
Vbeaters
p5917
sI5917
Vparticipants
p5918
sI5918
Vdroppped
p5919
sI5919
Vgrinds
p5920
sI5920
Vprint
p5921
sI5921
Vtreating
p5922
sI5922
Vtriforce
p5923
sI5923
Vdesign
p5924
sI5924
Vmultitude
p5925
sI5925
Vscowling
p5926
sI5926
Vcondensed
p5927
sI5927
Vtoes
p5928
sI5928
Vhalf-eaten
p5929
sI5929
Vjati
p5930
sI5930
Vdirections
p5931
sI5931
Vsitring
p5932
sI5932
Vappliances
p5933
sI5933
Vshits
p5934
sI5934
Vflap
p5935
sI5935
Vstics
p5936
sI5936
Vtapioca
p5937
sI5937
Vwrestles
p5938
sI5938
Vpony
p5939
sI5939
Vsalted
p5940
sI5940
Vsectioned
p5941
sI5941
Vpond
p5942
sI5942
Vrather
p5943
sI5943
Vtinfoil
p5944
sI5944
Vsprinking
p5945
sI5945
Valgebra
p5946
sI5946
Vmarlon
p5947
sI5947
Vshade
p5948
sI5948
Vhandlebars
p5949
sI5949
Veludes
p5950
sI5950
Vsilencerco
p5951
sI5951
Vbout
p5952
sI5952
Vsomebody
p5953
sI5953
Vhunted
p5954
sI5954
Vreverent
p5955
sI5955
Vclmbing
p5956
sI5956
Vclandestine
p5957
sI5957
Vhealth
p5958
sI5958
Vcancy
p5959
sI5959
Vroofs
p5960
sI5960
Vthread
p5961
sI5961
Vrollerblades
p5962
sI5962
Vfrech
p5963
sI5963
Vlinking
p5964
sI5964
Vblank
p5965
sI5965
Vtraveler
p5966
sI5966
Vcake-cup
p5967
sI5967
Vgourmet
p5968
sI5968
Vsward
p5969
sI5969
Vvial
p5970
sI5970
Vstall
p5971
sI5971
Vuniforms
p5972
sI5972
Vbanjo
p5973
sI5973
Vpuffing
p5974
sI5974
Vnothing
p5975
sI5975
Vsoared
p5976
sI5976
Vwindows
p5977
sI5977
Vmimes
p5978
sI5978
Vhowls
p5979
sI5979
Vrocket
p5980
sI5980
Vfirewood
p5981
sI5981
Vsheppard
p5982
sI5982
Vgrazes
p5983
sI5983
Vhip
p5984
sI5984
Vshepherd
p5985
sI5985
Vgains
p5986
sI5986
Vnibbles
p5987
sI5987
Vbars
p5988
sI5988
Vparchment
p5989
sI5989
Vplywood
p5990
sI5990
Vorbiting
p5991
sI5991
Vrecently
p5992
sI5992
Vinset
p5993
sI5993
Vautomatice
p5994
sI5994
Vriddled
p5995
sI5995
Vsweep
p5996
sI5996
Vslots
p5997
sI5997
Vhoops
p5998
sI5998
Vpc
p5999
sI5999
Vvaguely
p6000
sI6000
Vmisbehaving
p6001
sI6001
Vinstructor
p6002
sI6002
Vplante
p6003
sI6003
Vezcrackers
p6004
sI6004
Vdemon
p6005
sI6005
Vcurrents
p6006
sI6006
Vparading
p6007
sI6007
Vgorlilla
p6008
sI6008
Vwierd
p6009
sI6009
Vkimono
p6010
sI6010
Vhigher
p6011
sI6011
Varrives
p6012
sI6012
Vfastens
p6013
sI6013
Vholidays
p6014
sI6014
Vriffle
p6015
sI6015
Vknot
p6016
sI6016
Vall-star
p6017
sI6017
Vquestions
p6018
sI6018
Vmargarine
p6019
sI6019
Vhumanoid
p6020
sI6020
Vspeedily
p6021
sI6021
Vpacifer
p6022
sI6022
Vawakes
p6023
sI6023
Vsprinklers
p6024
sI6024
Vforkful
p6025
sI6025
Vsauces
p6026
sI6026
Vgradually
p6027
sI6027
Vdrunkenly
p6028
sI6028
Vfragments
p6029
sI6029
Vcrawdads
p6030
sI6030
Vrefuses
p6031
sI6031
Vintense
p6032
sI6032
Vhousekeeping
p6033
sI6033
Vpuppie
p6034
sI6034
Vstitches
p6035
sI6035
Vrows
p6036
sI6036
Vfiles
p6037
sI6037
Vmountains
p6038
sI6038
Vupright
p6039
sI6039
Vpenguin
p6040
sI6040
Vdill
p6041
sI6041
Vhorse-rider
p6042
sI6042
Vpeach
p6043
sI6043
Vparlor
p6044
sI6044
Vgenerated
p6045
sI6045
Vwakeboarding
p6046
sI6046
Vwindy
p6047
sI6047
Vlanguages
p6048
sI6048
Vsnipes
p6049
sI6049
Vladle
p6050
sI6050
Vtutu
p6051
sI6051
Vposture
p6052
sI6052
Vnotes
p6053
sI6053
Vviolinists
p6054
sI6054
Vmotor-scooter
p6055
sI6055
Vgreen-board
p6056
sI6056
Vmanipulating
p6057
sI6057
Vdeboning
p6058
sI6058
Vammunition
p6059
sI6059
Vdividing
p6060
sI6060
Vevading
p6061
sI6061
Vnervous
p6062
sI6062
V\u0930\u0939\u093e
p6063
sI6063
Vapply
p6064
sI6064
Vpacketmathi
p6065
sI6065
Vusa
p6066
sI6066
Vdepicted
p6067
sI6067
Vweeping
p6068
sI6068
Vbitterly
p6069
sI6069
Vsort
p6070
sI6070
Vjournalists
p6071
sI6071
Vporuing
p6072
sI6072
Vr/c
p6073
sI6073
Vurad
p6074
sI6074
Vslaps
p6075
sI6075
Vrefigerator
p6076
sI6076
Vdusted
p6077
sI6077
Vnapkins
p6078
sI6078
Vdatebook
p6079
sI6079
Vpatrol
p6080
sI6080
Vtai
p6081
sI6081
Vsip
p6082
sI6082
Vinstead
p6083
sI6083
Vcuffed
p6084
sI6084
Vplucker
p6085
sI6085
Vzapped
p6086
sI6086
Vscrubs
p6087
sI6087
Vminnow
p6088
sI6088
Vquake
p6089
sI6089
Vonigiri
p6090
sI6090
Vchoose
p6091
sI6091
Vedging
p6092
sI6092
Vcitrus
p6093
sI6093
Vflee
p6094
sI6094
Vbilly
p6095
sI6095
Vouf
p6096
sI6096
Vmincemeat
p6097
sI6097
Vwhitish
p6098
sI6098
Vballroom
p6099
sI6099
Vparasailing
p6100
sI6100
Vipod
p6101
sI6101
Vpasting
p6102
sI6102
Vbonnet
p6103
sI6103
Vunknown
p6104
sI6104
Vinmate
p6105
sI6105
Vtheit
p6106
sI6106
Vdrool
p6107
sI6107
Vboil
p6108
sI6108
Vsimulate
p6109
sI6109
Vreverses
p6110
sI6110
Vpupplies
p6111
sI6111
Vscreeching
p6112
sI6112
Vpatients
p6113
sI6113
Vhairstyle
p6114
sI6114
Vshilpa
p6115
sI6115
Vfowl
p6116
sI6116
Vsips
p6117
sI6117
Vwathces
p6118
sI6118
Vbaseballs
p6119
sI6119
Vblanced
p6120
sI6120
Vvegetation
p6121
sI6121
Vclash
p6122
sI6122
Vpetrol
p6123
sI6123
Vric-a-roni
p6124
sI6124
Vmarinate
p6125
sI6125
Vfilmed
p6126
sI6126
Vcombs
p6127
sI6127
Vsurroundings
p6128
sI6128
Vthousands
p6129
sI6129
Vwatchint
p6130
sI6130
Vpresley
p6131
sI6131
Vburned
p6132
sI6132
Vwaterfalls
p6133
sI6133
Vviolen
p6134
sI6134
Vviolet
p6135
sI6135
Vmeatballs
p6136
sI6136
Vtargeted
p6137
sI6137
Vwetting
p6138
sI6138
Vbarbeque
p6139
sI6139
Vjoy
p6140
sI6140
Vjog
p6141
sI6141
Vcanopy
p6142
sI6142
Vcommando
p6143
sI6143
Vtrays
p6144
sI6144
Vshimp
p6145
sI6145
Vglock
p6146
sI6146
Vbike-man
p6147
sI6147
Vpainter
p6148
sI6148
Virate
p6149
sI6149
Vlauching
p6150
sI6150
Vesculator
p6151
sI6151
Velbows
p6152
sI6152
Vvaquero
p6153
sI6153
Vcoached
p6154
sI6154
Vcoaches
p6155
sI6155
Vwarming
p6156
sI6156
Vgutter
p6157
sI6157
Vplowed
p6158
sI6158
Vtussled
p6159
sI6159
Vrapid
p6160
sI6160
Vnicks
p6161
sI6161
Vmorbidly
p6162
sI6162
Vhitchhike
p6163
sI6163
Vdisrupting
p6164
sI6164
Vlead
p6165
sI6165
Vleader
p6166
sI6166
Vdevil
p6167
sI6167
Vbiscuit
p6168
sI6168
Vshipping
p6169
sI6169
Vstep-ups
p6170
sI6170
Vwilderness
p6171
sI6171
Vtravelers
p6172
sI6172
Vweighted
p6173
sI6173
Vregistration
p6174
sI6174
Vtransfer
p6175
sI6175
Vovertime
p6176
sI6176
Vsitiing
p6177
sI6177
Vpowdered
p6178
sI6178
Vupwards
p6179
sI6179
Vspanks
p6180
sI6180
Vquails
p6181
sI6181
Vcomplaint
p6182
sI6182
Vflounders
p6183
sI6183
Venlosed
p6184
sI6184
Vwaterskiing
p6185
sI6185
Vsmears
p6186
sI6186
Vroars
p6187
sI6187
Vbrance
p6188
sI6188
Vjetski
p6189
sI6189
Vsandwhich
p6190
sI6190
Vtoasts
p6191
sI6191
Vranks
p6192
sI6192
Vhardboiled
p6193
s.