ccollections
OrderedDict
p0
((lp1
(lp2
Va
p3
aI3
aa(lp4
Vis
p5
aI4
aa(lp6
Vthe
p7
aI5
aa(lp8
Vman
p9
aI6
aa(lp10
Vwoman
p11
aI7
aa(lp12
Von
p13
aI8
aa(lp14
Vin
p15
aI9
aa(lp16
Vof
p17
aI10
aa(lp18
Vare
p19
aI11
aa(lp20
Vand
p21
aI12
aa(lp22
Vwith
p23
aI13
aa(lp24
Vplaying
p25
aI14
aa(lp26
Vinto
p27
aI15
aa(lp28
Vperson
p29
aI16
aa(lp30
Vto
p31
aI17
aa(lp32
Van
p33
aI18
aa(lp34
Vtwo
p35
aI19
aa(lp36
Vsomeone
p37
aI20
aa(lp38
Vhis
p39
aI21
aa(lp40
Vdog
p41
aI22
aa(lp42
Vcat
p43
aI23
aa(lp44
Vslicing
p45
aI24
aa(lp46
Vwater
p47
aI25
aa(lp48
Vboy
p49
aI26
aa(lp50
Vgirl
p51
aI27
aa(lp52
Vsome
p53
aI28
aa(lp54
Vdown
p55
aI29
aa(lp56
Vcutting
p57
aI30
aa(lp58
Vdancing
p59
aI31
aa(lp60
Vup
p61
aI32
aa(lp62
Vbowl
p63
aI33
aa(lp64
Vguitar
p65
aI34
aa(lp66
Vriding
p67
aI35
aa(lp68
Vbaby
p69
aI36
aa(lp70
Vfrom
p71
aI37
aa(lp72
Vmen
p73
aI38
aa(lp74
Vat
p75
aI39
aa(lp76
Vlady
p77
aI40
aa(lp78
Veating
p79
aI41
aa(lp80
Vwalking
p81
aI42
aa(lp82
Vcar
p83
aI43
aa(lp84
Vher
p85
aI44
aa(lp86
Vmeat
p87
aI45
aa(lp88
Voff
p89
aI46
aa(lp90
Vout
p91
aI47
aa(lp92
Vrunning
p93
aI48
aa(lp94
Vonion
p95
aI49
aa(lp96
Vpan
p97
aI50
aa(lp98
Vpeople
p99
aI51
aa(lp100
V's
p101
aI52
aa(lp102
Vit
p103
aI53
aa(lp104
Vknife
p105
aI54
aa(lp106
Vfood
p107
aI55
aa(lp108
Vwomen
p109
aI56
aa(lp110
Vhorse
p111
aI57
aa(lp112
Vball
p113
aI58
aa(lp114
Vtalking
p115
aI59
aa(lp116
Vsmall
p117
aI60
aa(lp118
Vcuts
p119
aI61
aa(lp120
Vover
p121
aI62
aa(lp122
Vpot
p123
aI63
aa(lp124
Vpiece
p125
aI64
aa(lp126
Vbeing
p127
aI65
aa(lp128
Vthrough
p129
aI66
aa(lp130
Vsinging
p131
aI67
aa(lp132
Vpotato
p133
aI68
aa(lp134
Vpouring
p135
aI69
aa(lp136
Vplays
p137
aI70
aa(lp138
Vputting
p139
aI71
aa(lp140
Vby
p141
aI72
aa(lp142
Vslices
p143
aI73
aa(lp144
Vother
p145
aI74
aa(lp146
Vbread
p147
aI75
aa(lp148
Varound
p149
aI76
aa(lp150
Vpeeling
p151
aI77
aa(lp152
Vpieces
p153
aI78
aa(lp154
Vdoing
p155
aI79
aa(lp156
Vshrimp
p157
aI80
aa(lp158
Vpaper
p159
aI81
aa(lp160
Veggs
p161
aI82
aa(lp162
Vwhile
p163
aI83
aa(lp164
Vmotorcycle
p165
aI84
aa(lp166
Vstage
p167
aI85
aa(lp168
Vsomething
p169
aI86
aa(lp170
Vits
p171
aI87
aa(lp172
Vanother
p173
aI88
aa(lp174
Vcut
p175
aI89
aa(lp176
Vfish
p177
aI90
aa(lp178
Vmonkey
p179
aI91
aa(lp180
Vyoung
p181
aI92
aa(lp182
Vputs
p183
aI93
aa(lp184
Vsitting
p185
aI94
aa(lp186
Vlittle
p187
aI95
aa(lp188
Vusing
p189
aI96
aa(lp190
Vchopping
p191
aI97
aa(lp192
Vadding
p193
aI98
aa(lp194
Vroad
p195
aI99
aa(lp196
Vbike
p197
aI100
aa(lp198
Vlarge
p199
aI101
aa(lp200
Vthree
p201
aI102
aa(lp202
Vbox
p203
aI103
aa(lp204
Veach
p205
aI104
aa(lp206
Vsoccer
p207
aI105
aa(lp208
Vpanda
p209
aI106
aa(lp210
Vholding
p211
aI107
aa(lp212
Vgroup
p213
aI108
aa(lp214
Vrice
p215
aI109
aa(lp216
Vback
p217
aI110
aa(lp218
Vchicken
p219
aI111
aa(lp220
Vegg
p221
aI112
aa(lp222
Vsauce
p223
aI113
aa(lp224
Vchef
p225
aI114
aa(lp226
Vvegetables
p227
aI115
aa(lp228
Vsliced
p229
aI116
aa(lp230
Vphone
p231
aI117
aa(lp232
Vpours
p233
aI118
aa(lp234
Vflute
p235
aI119
aa(lp236
Vhand
p237
aI120
aa(lp238
Vcooking
p239
aI121
aa(lp240
Vground
p241
aI122
aa(lp242
Vplayed
p243
aI123
aa(lp244
Vpuppy
p245
aI124
aa(lp246
Vone
p247
aI125
aa(lp248
Vwhite
p249
aI126
aa(lp250
Vacross
p251
aI127
aa(lp252
Vmixing
p253
aI128
aa(lp254
Vstanding
p255
aI129
aa(lp256
Vas
p257
aI130
aa(lp258
Vfield
p259
aI131
aa(lp260
Vanimal
p261
aI132
aa(lp262
Vgarlic
p263
aI133
aa(lp264
Voil
p265
aI134
aa(lp266
Vkitten
p267
aI135
aa(lp268
Vstreet
p269
aI136
aa(lp270
Vgrass
p271
aI137
aa(lp272
Vonions
p273
aI138
aa(lp274
Vruns
p275
aI139
aa(lp276
Vpizza
p277
aI140
aa(lp278
Vfloor
p279
aI141
aa(lp280
Vdough
p281
aI142
aa(lp282
Vfrying
p283
aI143
aa(lp284
Vpiano
p285
aI144
aa(lp286
Vtheir
p287
aI145
aa(lp288
Vstirring
p289
aI146
aa(lp290
Vhands
p291
aI147
aa(lp292
Vtomato
p293
aI148
aa(lp294
Vfront
p295
aI149
aa(lp296
Vgirls
p297
aI150
aa(lp298
Vtogether
p299
aI151
aa(lp300
Vhead
p301
aI152
aa(lp302
Vbed
p303
aI153
aa(lp304
Vthen
p305
aI154
aa(lp306
Vgun
p307
aI155
aa(lp308
Vshooting
p309
aI156
aa(lp310
Vplastic
p311
aI157
aa(lp312
Vmoving
p313
aI158
aa(lp314
Vingredients
p315
aI159
aa(lp316
Vjumping
p317
aI160
aa(lp318
Vonto
p319
aI161
aa(lp320
Vjumps
p321
aI162
aa(lp322
Vtaking
p323
aI163
aa(lp324
Vseasoning
p325
aI164
aa(lp326
Vcook
p327
aI165
aa(lp328
Vfalls
p329
aI166
aa(lp330
Vboys
p331
aI167
aa(lp332
Vmaking
p333
aI168
aa(lp334
Vdance
p335
aI169
aa(lp336
Vbeach
p337
aI170
aa(lp338
Vpool
p339
aI171
aa(lp340
Vbear
p341
aI172
aa(lp342
Vrides
p343
aI173
aa(lp344
Vseveral
p345
aI174
aa(lp346
Vhalf
p347
aI175
aa(lp348
Vtable
p349
aI176
aa(lp350
Vwall
p351
aI177
aa(lp352
Vface
p353
aI178
aa(lp354
Vclimbing
p355
aI179
aa(lp356
Vfighting
p357
aI180
aa(lp358
Vcontainer
p359
aI181
aa(lp360
Vcucumber
p361
aI182
aa(lp362
Vbutter
p363
aI183
aa(lp364
Vdriving
p365
aI184
aa(lp366
Vglass
p367
aI185
aa(lp368
Vcamera
p369
aI186
aa(lp370
Vhe
p371
aI187
aa(lp372
Vperforming
p373
aI188
aa(lp374
Vlooking
p375
aI189
aa(lp376
Vrope
p377
aI190
aa(lp378
Vcarrot
p379
aI191
aa(lp380
Vput
p381
aI192
aa(lp382
Vtop
p383
aI193
aa(lp384
Vbicycle
p385
aI194
aa(lp386
Vred
p387
aI195
aa(lp388
Vgreen
p389
aI196
aa(lp390
Vmicrophone
p391
aI197
aa(lp392
Vwooden
p393
aI198
aa(lp394
Vcheese
p395
aI199
aa(lp396
Vliquid
p397
aI200
aa(lp398
Vplate
p399
aI201
aa(lp400
Vpoured
p401
aI202
aa(lp402
Vtoy
p403
aI203
aa(lp404
Vfinger
p405
aI204
aa(lp406
Vapplying
p407
aI205
aa(lp408
Vkid
p409
aI206
aa(lp410
Vtrying
p411
aI207
aa(lp412
Vthem
p413
aI208
aa(lp414
Vwalks
p415
aI209
aa(lp416
Vside
p417
aI210
aa(lp418
Vlicking
p419
aI211
aa(lp420
Vplayer
p421
aI212
aa(lp422
Valong
p423
aI213
aa(lp424
Vtree
p425
aI214
aa(lp426
Vcan
p427
aI215
aa(lp428
Vhair
p429
aI216
aa(lp430
Vpepper
p431
aI217
aa(lp432
Vvegetable
p433
aI218
aa(lp434
Vfalling
p435
aI219
aa(lp436
Vswimming
p437
aI220
aa(lp438
Vpasta
p439
aI221
aa(lp440
Vmachine
p441
aI222
aa(lp442
Vseated
p443
aI223
aa(lp444
Vguy
p445
aI224
aa(lp446
Vdanced
p447
aI225
aa(lp448
Vraw
p449
aI226
aa(lp450
Vfor
p451
aI227
aa(lp452
Vchili
p453
aI228
aa(lp454
Vexercising
p455
aI229
aa(lp456
Vmakeup
p457
aI230
aa(lp458
Vadded
p459
aI231
aa(lp460
Vtail
p461
aI232
aa(lp462
Vbag
p463
aI233
aa(lp464
Vdrums
p465
aI234
aa(lp466
Vsnow
p467
aI235
aa(lp468
Vmixture
p469
aI236
aa(lp470
Vflour
p471
aI237
aa(lp472
Vkids
p473
aI238
aa(lp474
Vbird
p475
aI239
aa(lp476
Vroom
p477
aI240
aa(lp478
Vpotatoes
p479
aI241
aa(lp480
Vboiling
p481
aI242
aa(lp482
Vhim
p483
aI243
aa(lp484
Vchopped
p485
aI244
aa(lp486
Vice
p487
aI245
aa(lp488
Vcouple
p489
aI246
aa(lp490
Vboat
p491
aI247
aa(lp492
Vair
p493
aI248
aa(lp494
Vlying
p495
aI249
aa(lp496
Vsword
p497
aI250
aa(lp498
Vdoes
p499
aI251
aa(lp500
Vband
p501
aI252
aa(lp502
Vkicking
p503
aI253
aa(lp504
Vchildren
p505
aI254
aa(lp506
Vpork
p507
aI255
aa(lp508
Vspeaking
p509
aI256
aa(lp510
Vcleaning
p511
aI257
aa(lp512
Vshot
p513
aI258
aa(lp514
Vbottle
p515
aI259
aa(lp516
Vdrinking
p517
aI260
aa(lp518
Vopen
p519
aI261
aa(lp520
Vchild
p521
aI262
aa(lp522
Vdogs
p523
aI263
aa(lp524
Vcooked
p525
aI264
aa(lp526
Vdirt
p527
aI265
aa(lp528
Vskillet
p529
aI266
aa(lp530
Vviolin
p531
aI267
aa(lp532
Velephant
p533
aI268
aa(lp534
Vplay
p535
aI269
aa(lp536
Vboard
p537
aI270
aa(lp538
Vpeeled
p539
aI271
aa(lp540
Vtiger
p541
aI272
aa(lp542
Vfootball
p543
aI273
aa(lp544
Vfiring
p545
aI274
aa(lp546
Vpushing
p547
aI275
aa(lp548
Vtarget
p549
aI276
aa(lp550
Vplacing
p551
aI277
aa(lp552
Vwood
p553
aI278
aa(lp554
Vchair
p555
aI279
aa(lp556
Vslow
p557
aI280
aa(lp558
Vtakes
p559
aI281
aa(lp560
Vflying
p561
aI282
aa(lp562
Vslice
p563
aI283
aa(lp564
Vwoods
p565
aI284
aa(lp566
Vmakes
p567
aI285
aa(lp568
Vtricks
p569
aI286
aa(lp570
Vcup
p571
aI287
aa(lp572
Vtrain
p573
aI288
aa(lp574
Vcarrying
p575
aI289
aa(lp576
Vpeels
p577
aI290
aa(lp578
Vbehind
p579
aI291
aa(lp580
Vget
p581
aI292
aa(lp582
Vrode
p583
aI293
aa(lp584
Vstairs
p585
aI294
aa(lp586
Vtalks
p587
aI295
aa(lp588
Vmouth
p589
aI296
aa(lp590
Vpolar
p591
aI297
aa(lp592
Vcarrots
p593
aI298
aa(lp594
Vcouch
p595
aI299
aa(lp596
Vwatching
p597
aI300
aa(lp598
Vdicing
p599
aI301
aa(lp600
Vwatermelon
p601
aI302
aa(lp602
Vmilk
p603
aI303
aa(lp604
Voutside
p605
aI304
aa(lp606
Vdrawing
p607
aI305
aa(lp608
Vrock
p609
aI306
aa(lp610
Vceiling
p611
aI307
aa(lp612
Vgets
p613
aI308
aa(lp614
Vgetting
p615
aI309
aa(lp616
Vwas
p617
aI310
aa(lp618
Vride
p619
aI311
aa(lp620
Vblack
p621
aI312
aa(lp622
Veats
p623
aI313
aa(lp624
Vlion
p625
aI314
aa(lp626
Vstick
p627
aI315
aa(lp628
Vgoal
p629
aI316
aa(lp630
Vhit
p631
aI317
aa(lp632
Vzebras
p633
aI318
aa(lp634
Vshoots
p635
aI319
aa(lp636
Vbanana
p637
aI320
aa(lp638
Vpulling
p639
aI321
aa(lp640
Vfell
p641
aI322
aa(lp642
Vwhen
p643
aI323
aa(lp644
Vran
p645
aI324
aa(lp646
Vhorses
p647
aI325
aa(lp648
Vspoon
p649
aI326
aa(lp650
Vpreparing
p651
aI327
aa(lp652
Vwalked
p653
aI328
aa(lp654
Vlifting
p655
aI329
aa(lp656
Vremoving
p657
aI330
aa(lp658
Vwearing
p659
aI331
aa(lp660
Veye
p661
aI332
aa(lp662
Vocean
p663
aI333
aa(lp664
Vcartoon
p665
aI334
aa(lp666
Vtoddler
p667
aI335
aa(lp668
Vhot
p669
aI336
aa(lp670
Vlaying
p671
aI337
aa(lp672
Vafter
p673
aI338
aa(lp674
Vthat
p675
aI339
aa(lp676
Vcricket
p677
aI340
aa(lp678
Vadds
p679
aI341
aa(lp680
Vcontaining
p681
aI342
aa(lp682
Vloris
p683
aI343
aa(lp684
Vdish
p685
aI344
aa(lp686
Vbasketball
p687
aI345
aa(lp688
Vhamster
p689
aI346
aa(lp690
Vloaf
p691
aI347
aa(lp692
Vchops
p693
aI348
aa(lp694
Vtofu
p695
aI349
aa(lp696
Vslide
p697
aI350
aa(lp698
Vdid
p699
aI351
aa(lp700
Vbatter
p701
aI352
aa(lp702
Vstore
p703
aI353
aa(lp704
Vpencil
p705
aI354
aa(lp706
Vbroccoli
p707
aI355
aa(lp708
Vskin
p709
aI356
aa(lp710
Vdances
p711
aI357
aa(lp712
Vskateboard
p713
aI358
aa(lp714
Vrolling
p715
aI359
aa(lp716
Vjumped
p717
aI360
aa(lp718
Vplane
p719
aI361
aa(lp720
Vkissing
p721
aI362
aa(lp722
Vspaghetti
p723
aI363
aa(lp724
Vaway
p725
aI364
aa(lp726
Vsidewalk
p727
aI365
aa(lp728
Vcracking
p729
aI366
aa(lp730
Vcard
p731
aI367
aa(lp732
Vbuilding
p733
aI368
aa(lp734
Vmirror
p735
aI369
aa(lp736
Vsink
p737
aI370
aa(lp738
Vtruck
p739
aI371
aa(lp740
Voven
p741
aI372
aa(lp742
Vscissors
p743
aI373
aa(lp744
Vtelephone
p745
aI374
aa(lp746
Vbreaking
p747
aI375
aa(lp748
Vhill
p749
aI376
aa(lp750
Vopening
p751
aI377
aa(lp752
Vopens
p753
aI378
aa(lp754
Vexercise
p755
aI379
aa(lp756
Vrifle
p757
aI380
aa(lp758
Vinside
p759
aI381
aa(lp760
Vlaughing
p761
aI382
aa(lp762
Vitself
p763
aI383
aa(lp764
Vplaced
p765
aI384
aa(lp766
Vrain
p767
aI385
aa(lp768
Vbrown
p769
aI386
aa(lp770
Vhedgehog
p771
aI387
aa(lp772
Vbath
p773
aI388
aa(lp774
Vfour
p775
aI389
aa(lp776
Vmusic
p777
aI390
aa(lp778
Vblender
p779
aI391
aa(lp780
Vchop
p781
aI392
aa(lp782
Vspreading
p783
aI393
aa(lp784
Vwriting
p785
aI394
aa(lp786
Vlemon
p787
aI395
aa(lp788
Vrabbit
p789
aI396
aa(lp790
Vhas
p791
aI397
aa(lp792
Vdeer
p793
aI398
aa(lp794
Vseasons
p795
aI399
aa(lp796
Vrace
p797
aI400
aa(lp798
Vexercises
p799
aI401
aa(lp800
Vgame
p801
aI402
aa(lp802
Vkeyboard
p803
aI403
aa(lp804
Vchasing
p805
aI404
aa(lp806
Vgoing
p807
aI405
aa(lp808
Vsliding
p809
aI406
aa(lp810
Vtennis
p811
aI407
aa(lp812
Vskating
p813
aI408
aa(lp814
Vleaves
p815
aI409
aa(lp816
Vfat
p817
aI410
aa(lp818
Velectric
p819
aI411
aa(lp820
Vwrestling
p821
aI412
aa(lp822
Vfrog
p823
aI413
aa(lp824
Vbrush
p825
aI414
aa(lp826
Vate
p827
aI415
aa(lp828
Vsquirrel
p829
aI416
aa(lp830
Vtrumpet
p831
aI417
aa(lp832
Vfence
p833
aI418
aa(lp834
Vmushrooms
p835
aI419
aa(lp836
Vweights
p837
aI420
aa(lp838
Vapple
p839
aI421
aa(lp840
Vhitting
p841
aI422
aa(lp842
Vvery
p843
aI423
aa(lp844
Vpandas
p845
aI424
aa(lp846
Vtrack
p847
aI425
aa(lp848
Vnoodles
p849
aI426
aa(lp850
Vpicture
p851
aI427
aa(lp852
Vmade
p853
aI428
aa(lp854
Vfingers
p855
aI429
aa(lp856
Vclimbs
p857
aI430
aa(lp858
Vcream
p859
aI431
aa(lp860
Vjuice
p861
aI432
aa(lp862
Vthrowing
p863
aI433
aa(lp864
Vblock
p865
aI434
aa(lp866
Vsprinkling
p867
aI435
aa(lp868
Vstirs
p869
aI436
aa(lp870
Vstrips
p871
aI437
aa(lp872
Vbench
p873
aI438
aa(lp874
Vbiting
p875
aI439
aa(lp876
Vhanging
p877
aI440
aa(lp878
Vtrampoline
p879
aI441
aa(lp880
Vsmoking
p881
aI442
aa(lp882
Vsugar
p883
aI443
aa(lp884
Vhouse
p885
aI444
aa(lp886
Vstunts
p887
aI445
aa(lp888
Vyard
p889
aI446
aa(lp890
Vstirred
p891
aI447
aa(lp892
Vbeef
p893
aI448
aa(lp894
Vbreaks
p895
aI449
aa(lp896
Vspices
p897
aI450
aa(lp898
Vdoor
p899
aI451
aa(lp900
Vfire
p901
aI452
aa(lp902
Vkitchen
p903
aI453
aa(lp904
Vtrunk
p905
aI454
aa(lp906
Vpushes
p907
aI455
aa(lp908
Vscooter
p909
aI456
aa(lp910
Vhimself
p911
aI457
aa(lp912
Vagainst
p913
aI458
aa(lp914
Vbody
p915
aI459
aa(lp916
Vtowel
p917
aI460
aa(lp918
Vsheet
p919
aI461
aa(lp920
Vcounter
p921
aI462
aa(lp922
Vplaces
p923
aI463
aa(lp924
Vfruit
p925
aI464
aa(lp926
Vtried
p927
aI465
aa(lp928
Veggplant
p929
aI466
aa(lp930
Vkicks
p931
aI467
aa(lp932
Vtargets
p933
aI468
aa(lp934
Vmixes
p935
aI469
aa(lp936
Vwashing
p937
aI470
aa(lp938
Vunder
p939
aI471
aa(lp940
Vrider
p941
aI472
aa(lp942
Vlegs
p943
aI473
aa(lp944
Vtreadmill
p945
aI474
aa(lp946
Vturtle
p947
aI475
aa(lp948
Vline
p949
aI476
aa(lp950
Vvideo
p951
aI477
aa(lp952
Vballs
p953
aI478
aa(lp954
Vcage
p955
aI479
aa(lp956
Vmoves
p957
aI480
aa(lp958
Vbig
p959
aI481
aa(lp960
Vladies
p961
aI482
aa(lp962
Vorange
p963
aI483
aa(lp964
Vcake
p965
aI484
aa(lp966
Vpulled
p967
aI485
aa(lp968
Vbubble
p969
aI486
aa(lp970
Vbears
p971
aI487
aa(lp972
Vmicrowave
p973
aI488
aa(lp974
Vabout
p975
aI489
aa(lp976
Vpath
p977
aI490
aa(lp978
Vpole
p979
aI491
aa(lp980
Varm
p981
aI492
aa(lp982
Vboiled
p983
aI493
aa(lp984
Vsalt
p985
aI494
aa(lp986
Vjet
p987
aI495
aa(lp988
Vpicks
p989
aI496
aa(lp990
Vboxing
p991
aI497
aa(lp992
Vshowing
p993
aI498
aa(lp994
Vtalked
p995
aI499
aa(lp996
Vbroth
p997
aI500
aa(lp998
Vfull
p999
aI501
aa(lp1000
Vseeds
p1001
aI502
aa(lp1002
Varea
p1003
aI503
aa(lp1004
Vgrill
p1005
aI504
aa(lp1006
Vindividual
p1007
aI505
aa(lp1008
Vfeeding
p1009
aI506
aa(lp1010
Vchewing
p1011
aI507
aa(lp1012
Vsang
p1013
aI508
aa(lp1014
Vsand
p1015
aI509
aa(lp1016
Vpushed
p1017
aI510
aa(lp1018
Vremoves
p1019
aI511
aa(lp1020
Vdrinks
p1021
aI512
aa(lp1022
Vedge
p1023
aI513
aa(lp1024
Vwalk
p1025
aI514
aa(lp1026
Vbacon
p1027
aI515
aa(lp1028
Vpulls
p1029
aI516
aa(lp1030
Vleg
p1031
aI517
aa(lp1032
Vthin
p1033
aI518
aa(lp1034
Vcircles
p1035
aI519
aa(lp1036
Vreading
p1037
aI520
aa(lp1038
Vdrives
p1039
aI521
aa(lp1040
Vracing
p1041
aI522
aa(lp1042
Vfox
p1043
aI523
aa(lp1044
Vtortilla
p1045
aI524
aa(lp1046
Vhuge
p1047
aI525
aa(lp1048
Vwindow
p1049
aI526
aa(lp1050
Vcars
p1051
aI527
aa(lp1052
Vjump
p1053
aI528
aa(lp1054
Vshe
p1055
aI529
aa(lp1056
Vhits
p1057
aI530
aa(lp1058
Vnear
p1059
aI531
aa(lp1060
Vinstrument
p1061
aI532
aa(lp1062
Vblue
p1063
aI533
aa(lp1064
Vwheel
p1065
aI534
aa(lp1066
Vtook
p1067
aI535
aa(lp1068
Vsong
p1069
aI536
aa(lp1070
Vnext
p1071
aI537
aa(lp1072
Vhigh
p1073
aI538
aa(lp1074
Vsniffing
p1075
aI539
aa(lp1076
Vtries
p1077
aI540
aa(lp1078
Velephants
p1079
aI541
aa(lp1080
Vcub
p1081
aI542
aa(lp1082
Vcucumbers
p1083
aI543
aa(lp1084
Vairplane
p1085
aI544
aa(lp1086
Vcigarette
p1087
aI545
aa(lp1088
Vmotor
p1089
aI546
aa(lp1090
Vyellow
p1091
aI547
aa(lp1092
Vhole
p1093
aI548
aa(lp1094
Vspinning
p1095
aI549
aa(lp1096
Vcrying
p1097
aI550
aa(lp1098
Vbe
p1099
aI551
aa(lp1100
Vpuppet
p1101
aI552
aa(lp1102
Vappears
p1103
aI553
aa(lp1104
Vsings
p1105
aI554
aa(lp1106
Vcracks
p1107
aI555
aa(lp1108
Vshopping
p1109
aI556
aa(lp1110
Vdressed
p1111
aI557
aa(lp1112
Vpetting
p1113
aI558
aa(lp1114
Vhelicopter
p1115
aI559
aa(lp1116
Vattacking
p1117
aI560
aa(lp1118
Vwho
p1119
aI561
aa(lp1120
Vsign
p1121
aI562
aa(lp1122
Vshown
p1123
aI563
aa(lp1124
Vcats
p1125
aI564
aa(lp1126
Vcell
p1127
aI565
aa(lp1128
Vdrops
p1129
aI566
aa(lp1130
Vacoustic
p1131
aI567
aa(lp1132
Vrun
p1133
aI568
aa(lp1134
Vbasket
p1135
aI569
aa(lp1136
Vtub
p1137
aI570
aa(lp1138
Vlifts
p1139
aI571
aa(lp1140
Vpineapple
p1141
aI572
aa(lp1142
Vfeet
p1143
aI573
aa(lp1144
Vwhich
p1145
aI574
aa(lp1146
Vkneading
p1147
aI575
aa(lp1148
Vgarden
p1149
aI576
aa(lp1150
Vsits
p1151
aI577
aa(lp1152
Vcow
p1153
aI578
aa(lp1154
Vdrink
p1155
aI579
aa(lp1156
Vtoward
p1157
aI580
aa(lp1158
Vslowly
p1159
aI581
aa(lp1160
Vpuppies
p1161
aI582
aa(lp1162
Vgorilla
p1163
aI583
aa(lp1164
Vshark
p1165
aI584
aa(lp1166
Vcubes
p1167
aI585
aa(lp1168
Vbackwards
p1169
aI586
aa(lp1170
Vend
p1171
aI587
aa(lp1172
Vcatch
p1173
aI588
aa(lp1174
Vpotatoe
p1175
aI589
aa(lp1176
Vchocolate
p1177
aI590
aa(lp1178
Vsky
p1179
aI591
aa(lp1180
Vmany
p1181
aI592
aa(lp1182
Vpackage
p1183
aI593
aa(lp1184
Vanimals
p1185
aI594
aa(lp1186
Vblowing
p1187
aI595
aa(lp1188
Vtrick
p1189
aI596
aa(lp1190
Vpolice
p1191
aI597
aa(lp1192
Vginger
p1193
aI598
aa(lp1194
Vmouse
p1195
aI599
aa(lp1196
Vmixed
p1197
aI600
aa(lp1198
Vbarking
p1199
aI601
aa(lp1200
Vbridge
p1201
aI602
aa(lp1202
Vcrashes
p1203
aI603
aa(lp1204
Vtomatoes
p1205
aI604
aa(lp1206
Vcliff
p1207
aI605
aa(lp1208
Vright
p1209
aI606
aa(lp1210
Vsat
p1211
aI607
aa(lp1212
Vlawn
p1213
aI608
aa(lp1214
Vtv
p1215
aI609
aa(lp1216
Vcoffee
p1217
aI610
aa(lp1218
Vslab
p1219
aI611
aa(lp1220
Vpitcher
p1221
aI612
aa(lp1222
Vanimated
p1223
aI613
aa(lp1224
Vbathing
p1225
aI614
aa(lp1226
Vseasonings
p1227
aI615
aa(lp1228
Vswinging
p1229
aI616
aa(lp1230
Veat
p1231
aI617
aa(lp1232
Vpaw
p1233
aI618
aa(lp1234
Vmother
p1235
aI619
aa(lp1236
Vattacks
p1237
aI620
aa(lp1238
Vdices
p1239
aI621
aa(lp1240
Vor
p1241
aI622
aa(lp1242
Vguns
p1243
aI623
aa(lp1244
Vstove
p1245
aI624
aa(lp1246
Vpaws
p1247
aI625
aa(lp1248
Vcolored
p1249
aI626
aa(lp1250
Vlemur
p1251
aI627
aa(lp1252
Vtowards
p1253
aI628
aa(lp1254
Vuses
p1255
aI629
aa(lp1256
Vcostume
p1257
aI630
aa(lp1258
Vlong
p1259
aI631
aa(lp1260
Vcomputer
p1261
aI632
aa(lp1262
Vlike
p1263
aI633
aa(lp1264
Vpowder
p1265
aI634
aa(lp1266
Vslides
p1267
aI635
aa(lp1268
Vhammer
p1269
aI636
aa(lp1270
Voctopus
p1271
aI637
aa(lp1272
Vfight
p1273
aI638
aa(lp1274
Vdead
p1275
aI639
aa(lp1276
Vfilled
p1277
aI640
aa(lp1278
Vsoup
p1279
aI641
aa(lp1280
Vhugging
p1281
aI642
aa(lp1282
Vlake
p1283
aI643
aa(lp1284
Vbeside
p1285
aI644
aa(lp1286
Vlooks
p1287
aI645
aa(lp1288
Vbadger
p1289
aI646
aa(lp1290
Vhow
p1291
aI647
aa(lp1292
Vpudding
p1293
aI648
aa(lp1294
Vcart
p1295
aI649
aa(lp1296
Vdrove
p1297
aI650
aa(lp1298
Vpink
p1299
aI651
aa(lp1300
Vgrating
p1301
aI652
aa(lp1302
Vmotion
p1303
aI653
aa(lp1304
Vperforms
p1305
aI654
aa(lp1306
Vbell
p1307
aI655
aa(lp1308
Vknocks
p1309
aI656
aa(lp1310
Vcrowd
p1311
aI657
aa(lp1312
Vtomatoe
p1313
aI658
aa(lp1314
Vfive
p1315
aI659
aa(lp1316
Vchased
p1317
aI660
aa(lp1318
Vring
p1319
aI661
aa(lp1320
Vflowers
p1321
aI662
aa(lp1322
Vkarate
p1323
aI663
aa(lp1324
Vasleep
p1325
aI664
aa(lp1326
Vbetween
p1327
aI665
aa(lp1328
Vtrees
p1329
aI666
aa(lp1330
Varms
p1331
aI667
aa(lp1332
Vmushroom
p1333
aI668
aa(lp1334
Vrubbing
p1335
aI669
aa(lp1336
Vmeowing
p1337
aI670
aa(lp1338
Vmartial
p1339
aI671
aa(lp1340
Vbrushing
p1341
aI672
aa(lp1342
Vholds
p1343
aI673
aa(lp1344
Vgot
p1345
aI674
aa(lp1346
Vmetal
p1347
aI675
aa(lp1348
Vteams
p1349
aI676
aa(lp1350
Vwind
p1351
aI677
aa(lp1352
Vpush
p1353
aI678
aa(lp1354
Vsuit
p1355
aI679
aa(lp1356
Vbathtub
p1357
aI680
aa(lp1358
Vshotgun
p1359
aI681
aa(lp1360
Vapplies
p1361
aI682
aa(lp1362
Vfires
p1363
aI683
aa(lp1364
Vtelevision
p1365
aI684
aa(lp1366
Vheld
p1367
aI685
aa(lp1368
Vlot
p1369
aI686
aa(lp1370
Vsofa
p1371
aI687
aa(lp1372
Vcardboard
p1373
aI688
aa(lp1374
Vpicking
p1375
aI689
aa(lp1376
Vmake
p1377
aI690
aa(lp1378
Vtalk
p1379
aI691
aa(lp1380
Veyelid
p1381
aI692
aa(lp1382
Vmeasuring
p1383
aI693
aa(lp1384
Vfolding
p1385
aI694
aa(lp1386
Vforest
p1387
aI695
aa(lp1388
Vnews
p1389
aI696
aa(lp1390
Vstuck
p1391
aI697
aa(lp1392
Vpeoples
p1393
aI698
aa(lp1394
Vtray
p1395
aI699
aa(lp1396
Vlid
p1397
aI700
aa(lp1398
Vstep
p1399
aI701
aa(lp1400
Vups
p1401
aI702
aa(lp1402
Vwent
p1403
aI703
aa(lp1404
Vbottles
p1405
aI704
aa(lp1406
Vribs
p1407
aI705
aa(lp1408
Vfrench
p1409
aI706
aa(lp1410
Vrefrigerator
p1411
aI707
aa(lp1412
Vpots
p1413
aI708
aa(lp1414
Vbun
p1415
aI709
aa(lp1416
Vplayers
p1417
aI710
aa(lp1418
Vchickens
p1419
aI711
aa(lp1420
Vfried
p1421
aI712
aa(lp1422
Vleaf
p1423
aI713
aa(lp1424
Vmarching
p1425
aI714
aa(lp1426
Votter
p1427
aI715
aa(lp1428
Vflips
p1429
aI716
aa(lp1430
Vsea
p1431
aI717
aa(lp1432
Vhaving
p1433
aI718
aa(lp1434
Vbeating
p1435
aI719
aa(lp1436
Vlanding
p1437
aI720
aa(lp1438
Vdry
p1439
aI721
aa(lp1440
Vtiny
p1441
aI722
aa(lp1442
Vthrew
p1443
aI723
aa(lp1444
Vtapping
p1445
aI724
aa(lp1446
Vpair
p1447
aI725
aa(lp1448
Vhard
p1449
aI726
aa(lp1450
Vbunch
p1451
aI727
aa(lp1452
Vmatch
p1453
aI728
aa(lp1454
Vfemale
p1455
aI729
aa(lp1456
Vbus
p1457
aI730
aa(lp1458
Vbeer
p1459
aI731
aa(lp1460
Vcubs
p1461
aI732
aa(lp1462
Vroller
p1463
aI733
aa(lp1464
Vsubstance
p1465
aI734
aa(lp1466
Vsquare
p1467
aI735
aa(lp1468
Vwatches
p1469
aI736
aa(lp1470
Vparsley
p1471
aI737
aa(lp1472
Vdigging
p1473
aI738
aa(lp1474
Vsaucepan
p1475
aI739
aa(lp1476
Vserving
p1477
aI740
aa(lp1478
Vstunt
p1479
aI741
aa(lp1480
Vboth
p1481
aI742
aa(lp1482
Vwings
p1483
aI743
aa(lp1484
Vwave
p1485
aI744
aa(lp1486
Vumbrella
p1487
aI745
aa(lp1488
Vshoulder
p1489
aI746
aa(lp1490
Vaudience
p1491
aI747
aa(lp1492
Vdeep
p1493
aI748
aa(lp1494
Vkicked
p1495
aI749
aa(lp1496
Vgoes
p1497
aI750
aa(lp1498
Vcloves
p1499
aI751
aa(lp1500
Vkind
p1501
aI752
aa(lp1502
Vmowing
p1503
aI753
aa(lp1504
Vcrawling
p1505
aI754
aa(lp1506
Vdummy
p1507
aI755
aa(lp1508
Vskiing
p1509
aI756
aa(lp1510
Vtube
p1511
aI757
aa(lp1512
Vherbs
p1513
aI758
aa(lp1514
Vwhole
p1515
aI759
aa(lp1516
Vconcrete
p1517
aI760
aa(lp1518
Vindian
p1519
aI761
aa(lp1520
Vpistol
p1521
aI762
aa(lp1522
Vthey
p1523
aI763
aa(lp1524
Vthick
p1525
aI764
aa(lp1526
Vturns
p1527
aI765
aa(lp1528
Vopened
p1529
aI766
aa(lp1530
Vflipping
p1531
aI767
aa(lp1532
Vwok
p1533
aI768
aa(lp1534
Vvehicle
p1535
aI769
aa(lp1536
Vbat
p1537
aI770
aa(lp1538
Vfall
p1539
aI771
aa(lp1540
Vchimpanzee
p1541
aI772
aa(lp1542
Vbeans
p1543
aI773
aa(lp1544
Vseasoned
p1545
aI774
aa(lp1546
Vtowels
p1547
aI775
aa(lp1548
Vcracked
p1549
aI776
aa(lp1550
Vlooked
p1551
aI777
aa(lp1552
Vflag
p1553
aI778
aa(lp1554
Vscratching
p1555
aI779
aa(lp1556
Vthrows
p1557
aI780
aa(lp1558
Vballoons
p1559
aI781
aa(lp1560
Vcheetah
p1561
aI782
aa(lp1562
Vpush-ups
p1563
aI783
aa(lp1564
Vrolled
p1565
aI784
aa(lp1566
Vteam
p1567
aI785
aa(lp1568
Vbite
p1569
aI786
aa(lp1570
Vstuffed
p1571
aI787
aa(lp1572
Vmans
p1573
aI788
aa(lp1574
Vstomach
p1575
aI789
aa(lp1576
Vwrapping
p1577
aI790
aa(lp1578
Vspreads
p1579
aI791
aa(lp1580
Vused
p1581
aI792
aa(lp1582
Vkick
p1583
aI793
aa(lp1584
Vonstage
p1585
aI794
aa(lp1586
Vbackground
p1587
aI795
aa(lp1588
Vfly
p1589
aI796
aa(lp1590
Vbites
p1591
aI797
aa(lp1592
Vlions
p1593
aI798
aa(lp1594
Vwiping
p1595
aI799
aa(lp1596
Vsalmon
p1597
aI800
aa(lp1598
Vpeppers
p1599
aI801
aa(lp1600
Vgiving
p1601
aI802
aa(lp1602
Vteasing
p1603
aI803
aa(lp1604
Vflip
p1605
aI804
aa(lp1606
Vrabbits
p1607
aI805
aa(lp1608
Vpig
p1609
aI806
aa(lp1610
Vparrot
p1611
aI807
aa(lp1612
Vluggage
p1613
aI808
aa(lp1614
Vfinely
p1615
aI809
aa(lp1616
Vplace
p1617
aI810
aa(lp1618
Vparking
p1619
aI811
aa(lp1620
Vhighway
p1621
aI812
aa(lp1622
Vsqueezing
p1623
aI813
aa(lp1624
Vmotorbike
p1625
aI814
aa(lp1626
Vbranch
p1627
aI815
aa(lp1628
Vclimbed
p1629
aI816
aa(lp1630
Vpumpkins
p1631
aI817
aa(lp1632
Vobject
p1633
aI818
aa(lp1634
Vshadow
p1635
aI819
aa(lp1636
Vcooks
p1637
aI820
aa(lp1638
Vcrashing
p1639
aI821
aa(lp1640
Vteacher
p1641
aI822
aa(lp1642
Vwaving
p1643
aI823
aa(lp1644
Vriver
p1645
aI824
aa(lp1646
Vescalator
p1647
aI825
aa(lp1648
Vrobots
p1649
aI826
aa(lp1650
Vpracticing
p1651
aI827
aa(lp1652
Vsnake
p1653
aI828
aa(lp1654
Vscene
p1655
aI829
aa(lp1656
Vpainting
p1657
aI830
aa(lp1658
Vgiraffe
p1659
aI831
aa(lp1660
Vforth
p1661
aI832
aa(lp1662
Vapplied
p1663
aI833
aa(lp1664
Vahead
p1665
aI834
aa(lp1666
Vchopsticks
p1667
aI835
aa(lp1668
Vclose
p1669
aI836
aa(lp1670
Vrolls
p1671
aI837
aa(lp1672
Vsurface
p1673
aI838
aa(lp1674
Vcall
p1675
aI839
aa(lp1676
Vbouncing
p1677
aI840
aa(lp1678
Vchess
p1679
aI841
aa(lp1680
Vsticks
p1681
aI842
aa(lp1682
Vmat
p1683
aI843
aa(lp1684
Vsleeping
p1685
aI844
aa(lp1686
Vgrabs
p1687
aI845
aa(lp1688
Vhamburger
p1689
aI846
aa(lp1690
Vpark
p1691
aI847
aa(lp1692
Vmountain
p1693
aI848
aa(lp1694
Vdropping
p1695
aI849
aa(lp1696
Vpet
p1697
aI850
aa(lp1698
Vclove
p1699
aI851
aa(lp1700
Vrow
p1701
aI852
aa(lp1702
Vstands
p1703
aI853
aa(lp1704
Vbaseball
p1705
aI854
aa(lp1706
Vseafood
p1707
aI855
aa(lp1708
Vlighter
p1709
aI856
aa(lp1710
Vpenguins
p1711
aI857
aa(lp1712
Vdriver
p1713
aI858
aa(lp1714
Vdriven
p1715
aI859
aa(lp1716
Vall
p1717
aI860
aa(lp1718
Vperformed
p1719
aI861
aa(lp1720
Vreporter
p1721
aI862
aa(lp1722
Vwine
p1723
aI863
aa(lp1724
Vhad
p1725
aI864
aa(lp1726
Vtricycle
p1727
aI865
aa(lp1728
Vcity
p1729
aI866
aa(lp1730
Vburning
p1731
aI867
aa(lp1732
Vsmiling
p1733
aI868
aa(lp1734
Vrack
p1735
aI869
aa(lp1736
Vthereafter
p1737
aI870
aa(lp1738
Vwhisk
p1739
aI871
aa(lp1740
Vdo
p1741
aI872
aa(lp1742
Vbunny
p1743
aI873
aa(lp1744
Vguitars
p1745
aI874
aa(lp1746
Vsweeping
p1747
aI875
aa(lp1748
Vcircle
p1749
aI876
aa(lp1750
Vempty
p1751
aI877
aa(lp1752
Vscrambled
p1753
aI878
aa(lp1754
Vcoating
p1755
aI879
aa(lp1756
Vkettle
p1757
aI880
aa(lp1758
Vhuman
p1759
aI881
aa(lp1760
Vfloating
p1761
aI882
aa(lp1762
Veyes
p1763
aI883
aa(lp1764
Vferret
p1765
aI884
aa(lp1766
Vbit
p1767
aI885
aa(lp1768
Vdolphin
p1769
aI886
aa(lp1770
Vbullets
p1771
aI887
aa(lp1772
Vingrediants
p1773
aI888
aa(lp1774
Vfan
p1775
aI889
aa(lp1776
Vreflection
p1777
aI890
aa(lp1778
Vcloth
p1779
aI891
aa(lp1780
Vfries
p1781
aI892
aa(lp1782
Vduck
p1783
aI893
aa(lp1784
Vbottom
p1785
aI894
aa(lp1786
Vroll
p1787
aI895
aa(lp1788
Vknocked
p1789
aI896
aa(lp1790
Vrapidly
p1791
aI897
aa(lp1792
Vheads
p1793
aI898
aa(lp1794
Vguinea
p1795
aI899
aa(lp1796
Vspins
p1797
aI900
aa(lp1798
Vglasses
p1799
aI901
aa(lp1800
Vwire
p1801
aI902
aa(lp1802
Vmath
p1803
aI903
aa(lp1804
Votters
p1805
aI904
aa(lp1806
Vperform
p1807
aI905
aa(lp1808
Vgoose
p1809
aI906
aa(lp1810
Vattacked
p1811
aI907
aa(lp1812
Vmoved
p1813
aI908
aa(lp1814
Vskull
p1815
aI909
aa(lp1816
Vmotorcyclist
p1817
aI910
aa(lp1818
Vlettuce
p1819
aI911
aa(lp1820
Vbalance
p1821
aI912
aa(lp1822
Vwaterfall
p1823
aI913
aa(lp1824
Vdifferent
p1825
aI914
aa(lp1826
Voutdoor
p1827
aI915
aa(lp1828
Vboards
p1829
aI916
aa(lp1830
Vgave
p1831
aI917
aa(lp1832
Vtoad
p1833
aI918
aa(lp1834
Vkittens
p1835
aI919
aa(lp1836
Vgoat
p1837
aI920
aa(lp1838
Vfolds
p1839
aI921
aa(lp1840
Vvan
p1841
aI922
aa(lp1842
Vshaving
p1843
aI923
aa(lp1844
Vdipping
p1845
aI924
aa(lp1846
Vold
p1847
aI925
aa(lp1848
Vaxe
p1849
aI926
aa(lp1850
Vlicks
p1851
aI927
aa(lp1852
Vlengthwise
p1853
aI928
aa(lp1854
Vset
p1855
aI929
aa(lp1856
Vskateboarding
p1857
aI930
aa(lp1858
Vcereal
p1859
aI931
aa(lp1860
Vspread
p1861
aI932
aa(lp1862
Vnight
p1863
aI933
aa(lp1864
Vpumpkin
p1865
aI934
aa(lp1866
Vcomes
p1867
aI935
aa(lp1868
Vbeaver
p1869
aI936
aa(lp1870
Vwet
p1871
aI937
aa(lp1872
Vlook
p1873
aI938
aa(lp1874
Vpants
p1875
aI939
aa(lp1876
Vcoconut
p1877
aI940
aa(lp1878
Vround
p1879
aI941
aa(lp1880
Vpawing
p1881
aI942
aa(lp1882
Vdolls
p1883
aI943
aa(lp1884
Vpen
p1885
aI944
aa(lp1886
Vdragging
p1887
aI945
aa(lp1888
Vpunching
p1889
aI946
aa(lp1890
Vrat
p1891
aI947
aa(lp1892
Vofficer
p1893
aI948
aa(lp1894
Vcouples
p1895
aI949
aa(lp1896
Vweight
p1897
aI950
aa(lp1898
Vhotel
p1899
aI951
aa(lp1900
Vflight
p1901
aI952
aa(lp1902
Vrange
p1903
aI953
aa(lp1904
Vpeeler
p1905
aI954
aa(lp1906
Vrepeatedly
p1907
aI955
aa(lp1908
Vdraining
p1909
aI956
aa(lp1910
Vworking
p1911
aI957
aa(lp1912
Vartist
p1913
aI958
aa(lp1914
Vcanoe
p1915
aI959
aa(lp1916
Vyoga
p1917
aI960
aa(lp1918
Vsides
p1919
aI961
aa(lp1920
Vblocks
p1921
aI962
aa(lp1922
Vcabbage
p1923
aI963
aa(lp1924
Vsmoke
p1925
aI964
aa(lp1926
Vcaught
p1927
aI965
aa(lp1928
Vlanguage
p1929
aI966
aa(lp1930
Vpeas
p1931
aI967
aa(lp1932
Vcows
p1933
aI968
aa(lp1934
Vfoot
p1935
aI969
aa(lp1936
Vwaking
p1937
aI970
aa(lp1938
Vmango
p1939
aI971
aa(lp1940
Vdark
p1941
aI972
aa(lp1942
Vwhisked
p1943
aI973
aa(lp1944
Vpizzas
p1945
aI974
aa(lp1946
Vshoe
p1947
aI975
aa(lp1948
Vteenage
p1949
aI976
aa(lp1950
Vtouching
p1951
aI977
aa(lp1952
Vliving
p1953
aI978
aa(lp1954
Varts
p1955
aI979
aa(lp1956
Vshredding
p1957
aI980
aa(lp1958
Vstir
p1959
aI981
aa(lp1960
Vdragon
p1961
aI982
aa(lp1962
Vkite
p1963
aI983
aa(lp1964
Vroutine
p1965
aI984
aa(lp1966
Vfought
p1967
aI985
aa(lp1968
Vsharpening
p1969
aI986
aa(lp1970
Vspeaks
p1971
aI987
aa(lp1972
Vattendant
p1973
aI988
aa(lp1974
Vsloth
p1975
aI989
aa(lp1976
Vmarinade
p1977
aI990
aa(lp1978
Vorangutan
p1979
aI991
aa(lp1980
Vboot
p1981
aI992
aa(lp1982
Vshredded
p1983
aI993
aa(lp1984
Vhat
p1985
aI994
aa(lp1986
Vpassenger
p1987
aI995
aa(lp1988
Vbuttered
p1989
aI996
aa(lp1990
Vbowling
p1991
aI997
aa(lp1992
Vwaves
p1993
aI998
aa(lp1994
Vpaddling
p1995
aI999
aa(lp1996
Vshrimps
p1997
aI1000
aa(lp1998
Vdemonstrating
p1999
aI1001
aa(lp2000
Vscooping
p2001
aI1002
aa(lp2002
Vstaring
p2003
aI1003
aa(lp2004
Vlifted
p2005
aI1004
aa(lp2006
Vdraws
p2007
aI1005
aa(lp2008
Vbuttering
p2009
aI1006
aa(lp2010
Vpassing
p2011
aI1007
aa(lp2012
Vrear
p2013
aI1008
aa(lp2014
Vthrow
p2015
aI1009
aa(lp2016
Vmannequin
p2017
aI1010
aa(lp2018
Vcarpet
p2019
aI1011
aa(lp2020
Vsausage
p2021
aI1012
aa(lp2022
Vferrets
p2023
aI1013
aa(lp2024
Vsprinkles
p2025
aI1014
aa(lp2026
Vsewing
p2027
aI1015
aa(lp2028
Vsunflower
p2029
aI1016
aa(lp2030
Vcharacter
p2031
aI1017
aa(lp2032
Vstring
p2033
aI1018
aa(lp2034
Vguys
p2035
aI1019
aa(lp2036
Vwere
p2037
aI1020
aa(lp2038
Vnewspaper
p2039
aI1021
aa(lp2040
Vwipes
p2041
aI1022
aa(lp2042
Vfoxes
p2043
aI1023
aa(lp2044
Vgiant
p2045
aI1024
aa(lp2046
Vrestaurant
p2047
aI1025
aa(lp2048
Vpatient
p2049
aI1026
aa(lp2050
Vbulldog
p2051
aI1027
aa(lp2052
Vwakes
p2053
aI1028
aa(lp2054
Vmix
p2055
aI1029
aa(lp2056
Vmuddy
p2057
aI1030
aa(lp2058
Vgate
p2059
aI1031
aa(lp2060
Vrinsing
p2061
aI1032
aa(lp2062
Vsunglasses
p2063
aI1033
aa(lp2064
Vrowing
p2065
aI1034
aa(lp2066
Vautomatic
p2067
aI1035
aa(lp2068
Vmud
p2069
aI1036
aa(lp2070
Vpyramid
p2071
aI1037
aa(lp2072
Vmoose
p2073
aI1038
aa(lp2074
Vsprinkled
p2075
aI1039
aa(lp2076
Vapart
p2077
aI1040
aa(lp2078
Vwagging
p2079
aI1041
aa(lp2080
Vdiced
p2081
aI1042
aa(lp2082
Vsandwich
p2083
aI1043
aa(lp2084
Vexplodes
p2085
aI1044
aa(lp2086
Vskewers
p2087
aI1045
aa(lp2088
Vlarger
p2089
aI1046
aa(lp2090
Vflew
p2091
aI1047
aa(lp2092
Vcube
p2093
aI1048
aa(lp2094
Vcloset
p2095
aI1049
aa(lp2096
Vbelow
p2097
aI1050
aa(lp2098
Vdrying
p2099
aI1051
aa(lp2100
Vdumps
p2101
aI1052
aa(lp2102
Vshower
p2103
aI1053
aa(lp2104
Vblew
p2105
aI1054
aa(lp2106
Vsteps
p2107
aI1055
aa(lp2108
Vcrocodile
p2109
aI1056
aa(lp2110
Vdrive
p2111
aI1057
aa(lp2112
Vdives
p2113
aI1058
aa(lp2114
Vsumo
p2115
aI1059
aa(lp2116
Vimage
p2117
aI1060
aa(lp2118
Vpast
p2119
aI1061
aa(lp2120
Vturning
p2121
aI1062
aa(lp2122
Vmale
p2123
aI1063
aa(lp2124
Vpatio
p2125
aI1064
aa(lp2126
Vbarrel
p2127
aI1065
aa(lp2128
Vblows
p2129
aI1066
aa(lp2130
Vrocks
p2131
aI1067
aa(lp2132
Vdumping
p2133
aI1068
aa(lp2134
Vcameras
p2135
aI1069
aa(lp2136
Vswims
p2137
aI1070
aa(lp2138
Vgoalie
p2139
aI1071
aa(lp2140
Vway
p2141
aI1072
aa(lp2142
Vhall
p2143
aI1073
aa(lp2144
Vshows
p2145
aI1074
aa(lp2146
Vrind
p2147
aI1075
aa(lp2148
Vship
p2149
aI1076
aa(lp2150
Vgrated
p2151
aI1077
aa(lp2152
Vtracks
p2153
aI1078
aa(lp2154
Vsoldier
p2155
aI1079
aa(lp2156
Vtoys
p2157
aI1080
aa(lp2158
Vcupcake
p2159
aI1081
aa(lp2160
Vcatches
p2161
aI1082
aa(lp2162
Vpicked
p2163
aI1083
aa(lp2164
Vwhisking
p2165
aI1084
aa(lp2166
Vsprinkler
p2167
aI1085
aa(lp2168
Vshoulders
p2169
aI1086
aa(lp2170
Vbaking
p2171
aI1087
aa(lp2172
Vclothes
p2173
aI1088
aa(lp2174
Vnet
p2175
aI1089
aa(lp2176
Veyebrows
p2177
aI1090
aa(lp2178
Vroof
p2179
aI1091
aa(lp2180
Vbefore
p2181
aI1092
aa(lp2182
Vstarts
p2183
aI1093
aa(lp2184
Vbar
p2185
aI1094
aa(lp2186
Vsushi
p2187
aI1095
aa(lp2188
Vleft
p2189
aI1096
aa(lp2190
Vskateboarder
p2191
aI1097
aa(lp2192
Vjacket
p2193
aI1098
aa(lp2194
Vdrawer
p2195
aI1099
aa(lp2196
Vpins
p2197
aI1100
aa(lp2198
Vheadphones
p2199
aI1101
aa(lp2200
Vcalendar
p2201
aI1102
aa(lp2202
Vsame
p2203
aI1103
aa(lp2204
Vstarting
p2205
aI1104
aa(lp2206
Vcoming
p2207
aI1105
aa(lp2208
Vharp
p2209
aI1106
aa(lp2210
Vcarefully
p2211
aI1107
aa(lp2212
Vshape
p2213
aI1108
aa(lp2214
Vledge
p2215
aI1109
aa(lp2216
Vwashes
p2217
aI1110
aa(lp2218
Vchewed
p2219
aI1111
aa(lp2220
Vrhino
p2221
aI1112
aa(lp2222
Vcowboy
p2223
aI1113
aa(lp2224
Vclouds
p2225
aI1114
aa(lp2226
Vdried
p2227
aI1115
aa(lp2228
Vmicrophones
p2229
aI1116
aa(lp2230
Vstatue
p2231
aI1117
aa(lp2232
Vnails
p2233
aI1118
aa(lp2234
Vwhat
p2235
aI1119
aa(lp2236
Vshore
p2237
aI1120
aa(lp2238
Vbrick
p2239
aI1121
aa(lp2240
Vvanilla
p2241
aI1122
aa(lp2242
Vhitchhiking
p2243
aI1123
aa(lp2244
Vblade
p2245
aI1124
aa(lp2246
Vlocation
p2247
aI1125
aa(lp2248
Vpavement
p2249
aI1126
aa(lp2250
Vsurfing
p2251
aI1127
aa(lp2252
Vstone
p2253
aI1128
aa(lp2254
Vpull
p2255
aI1129
aa(lp2256
Vplant
p2257
aI1130
aa(lp2258
Vcastle
p2259
aI1131
aa(lp2260
Vnumber
p2261
aI1132
aa(lp2262
Vbreading
p2263
aI1133
aa(lp2264
Vland
p2265
aI1134
aa(lp2266
Vspatula
p2267
aI1135
aa(lp2268
Vsteel
p2269
aI1136
aa(lp2270
Vbiker
p2271
aI1137
aa(lp2272
Vbucket
p2273
aI1138
aa(lp2274
Vdoorway
p2275
aI1139
aa(lp2276
Vcosmetics
p2277
aI1140
aa(lp2278
Vkept
p2279
aI1141
aa(lp2280
Vpeel
p2281
aI1142
aa(lp2282
Vscores
p2283
aI1143
aa(lp2284
Vgum
p2285
aI1144
aa(lp2286
Vpong
p2287
aI1145
aa(lp2288
Vstaircase
p2289
aI1146
aa(lp2290
Vequipment
p2291
aI1147
aa(lp2292
Vwedges
p2293
aI1148
aa(lp2294
Vpancake
p2295
aI1149
aa(lp2296
Vshake
p2297
aI1150
aa(lp2298
Vcontrol
p2299
aI1151
aa(lp2300
Vshaking
p2301
aI1152
aa(lp2302
Vparked
p2303
aI1153
aa(lp2304
Vspeaker
p2305
aI1154
aa(lp2306
Vear
p2307
aI1155
aa(lp2308
Vroot
p2309
aI1156
aa(lp2310
Vpogo
p2311
aI1157
aa(lp2312
Vping
p2313
aI1158
aa(lp2314
Vpepperoni
p2315
aI1159
aa(lp2316
Vfast
p2317
aI1160
aa(lp2318
Vsuspended
p2319
aI1161
aa(lp2320
Vpacifier
p2321
aI1162
aa(lp2322
Vnose
p2323
aI1163
aa(lp2324
Vlands
p2325
aI1164
aa(lp2326
Vtripod
p2327
aI1165
aa(lp2328
Vremote
p2329
aI1166
aa(lp2330
Vraft
p2331
aI1167
aa(lp2332
Vsynchronized
p2333
aI1168
aa(lp2334
Vzucchini
p2335
aI1169
aa(lp2336
Vcostumes
p2337
aI1170
aa(lp2338
Vraccoons
p2339
aI1171
aa(lp2340
Vsauteing
p2341
aI1172
aa(lp2342
Veyebrow
p2343
aI1173
aa(lp2344
Vreporting
p2345
aI1174
aa(lp2346
Vbug
p2347
aI1175
aa(lp2348
Vupside
p2349
aI1176
aa(lp2350
Vsubmarine
p2351
aI1177
aa(lp2352
Vfurry
p2353
aI1178
aa(lp2354
Vchristmas
p2355
aI1179
aa(lp2356
Veagle
p2357
aI1180
aa(lp2358
Vtornado
p2359
aI1181
aa(lp2360
Vpersons
p2361
aI1182
aa(lp2362
Vstops
p2363
aI1183
aa(lp2364
Vinstruments
p2365
aI1184
aa(lp2366
Vtoilet
p2367
aI1185
aa(lp2368
Vsaxophone
p2369
aI1186
aa(lp2370
Vfallen
p2371
aI1187
aa(lp2372
Vkangaroo
p2373
aI1188
aa(lp2374
Vseaweed
p2375
aI1189
aa(lp2376
Vski
p2377
aI1190
aa(lp2378
Vpaste
p2379
aI1191
aa(lp2380
Vcarries
p2381
aI1192
aa(lp2382
Vleaps
p2383
aI1193
aa(lp2384
Vsoy
p2385
aI1194
aa(lp2386
Vtime
p2387
aI1195
aa(lp2388
Vchain
p2389
aI1196
aa(lp2390
Vcrushing
p2391
aI1197
aa(lp2392
Vwheelie
p2393
aI1198
aa(lp2394
Vdiving
p2395
aI1199
aa(lp2396
Vpower
p2397
aI1200
aa(lp2398
Vmammal
p2399
aI1201
aa(lp2400
Vsock
p2401
aI1202
aa(lp2402
Verasing
p2403
aI1203
aa(lp2404
Vmove
p2405
aI1204
aa(lp2406
Vlog
p2407
aI1205
aa(lp2408
Vlogs
p2409
aI1206
aa(lp2410
Vlicked
p2411
aI1207
aa(lp2412
Vexercised
p2413
aI1208
aa(lp2414
Vsteak
p2415
aI1209
aa(lp2416
Vconvertible
p2417
aI1210
aa(lp2418
Vcone
p2419
aI1211
aa(lp2420
Vskeleton
p2421
aI1212
aa(lp2422
Vtrainer
p2423
aI1213
aa(lp2424
Vchunks
p2425
aI1214
aa(lp2426
Vbroke
p2427
aI1215
aa(lp2428
Vamerican
p2429
aI1216
aa(lp2430
Volder
p2431
aI1217
aa(lp2432
Vstem
p2433
aI1218
aa(lp2434
Vsalad
p2435
aI1219
aa(lp2436
Veyeshadow
p2437
aI1220
aa(lp2438
Vscrambles
p2439
aI1221
aa(lp2440
Vcleans
p2441
aI1222
aa(lp2442
Vportion
p2443
aI1223
aa(lp2444
Vbaboon
p2445
aI1224
aa(lp2446
Vfore
p2447
aI1225
aa(lp2448
Vdrags
p2449
aI1226
aa(lp2450
Vscrambling
p2451
aI1227
aa(lp2452
Vunderwear
p2453
aI1228
aa(lp2454
Vwaiter
p2455
aI1229
aa(lp2456
Vknives
p2457
aI1230
aa(lp2458
Vkeyboards
p2459
aI1231
aa(lp2460
Vbags
p2461
aI1232
aa(lp2462
Vserves
p2463
aI1233
aa(lp2464
Voperating
p2465
aI1234
aa(lp2466
Vstacking
p2467
aI1235
aa(lp2468
Vcrawls
p2469
aI1236
aa(lp2470
Vflower
p2471
aI1237
aa(lp2472
Vdoctors
p2473
aI1238
aa(lp2474
Vdownhill
p2475
aI1239
aa(lp2476
Vstroller
p2477
aI1240
aa(lp2478
Vthemselves
p2479
aI1241
aa(lp2480
Vliner
p2481
aI1242
aa(lp2482
Vlined
p2483
aI1243
aa(lp2484
Vchases
p2485
aI1244
aa(lp2486
Vbeam
p2487
aI1245
aa(lp2488
Vsausages
p2489
aI1246
aa(lp2490
Vrectangular
p2491
aI1247
aa(lp2492
Vrevolver
p2493
aI1248
aa(lp2494
Vjogging
p2495
aI1249
aa(lp2496
Vtimes
p2497
aI1250
aa(lp2498
Vwrapped
p2499
aI1251
aa(lp2500
Vquickly
p2501
aI1252
aa(lp2502
Vswing
p2503
aI1253
aa(lp2504
Vcards
p2505
aI1254
aa(lp2506
Vslope
p2507
aI1255
aa(lp2508
Vhind
p2509
aI1256
aa(lp2510
Vtea
p2511
aI1257
aa(lp2512
Vlighting
p2513
aI1258
aa(lp2514
Vcookie
p2515
aI1259
aa(lp2516
Vthrown
p2517
aI1260
aa(lp2518
Vsnowboarding
p2519
aI1261
aa(lp2520
Vtraditional
p2521
aI1262
aa(lp2522
Vvarious
p2523
aI1263
aa(lp2524
Vrocking
p2525
aI1264
aa(lp2526
Vfrozen
p2527
aI1265
aa(lp2528
Vshirt
p2529
aI1266
aa(lp2530
Vpickle
p2531
aI1267
aa(lp2532
Vaardvark
p2533
aI1268
aa(lp2534
Vweather
p2535
aI1269
aa(lp2536
Vnoose
p2537
aI1270
aa(lp2538
Vdominoes
p2539
aI1271
aa(lp2540
Vhandcuffs
p2541
aI1272
aa(lp2542
Vcame
p2543
aI1273
aa(lp2544
Vyogurt
p2545
aI1274
aa(lp2546
Vtoaster
p2547
aI1275
aa(lp2548
V''
p2549
aI1276
aa(lp2550
Vheadset
p2551
aI1277
aa(lp2552
Vscratched
p2553
aI1278
aa(lp2554
Vthumb
p2555
aI1279
aa(lp2556
Vflipped
p2557
aI1280
aa(lp2558
Vlobster
p2559
aI1281
aa(lp2560
Vmeal
p2561
aI1282
aa(lp2562
Vtight
p2563
aI1283
aa(lp2564
Vhunting
p2565
aI1284
aa(lp2566
Vpick
p2567
aI1285
aa(lp2568
Vdress
p2569
aI1286
aa(lp2570
Vdragged
p2571
aI1287
aa(lp2572
Vsmashing
p2573
aI1288
aa(lp2574
Vt-shirt
p2575
aI1289
aa(lp2576
Vdrill
p2577
aI1290
aa(lp2578
Vkiss
p2579
aI1291
aa(lp2580
Vjar
p2581
aI1292
aa(lp2582
Vrunway
p2583
aI1293
aa(lp2584
Vgarage
p2585
aI1294
aa(lp2586
Vskipping
p2587
aI1295
aa(lp2588
Vhopping
p2589
aI1296
aa(lp2590
Vfired
p2591
aI1297
aa(lp2592
Vstriking
p2593
aI1298
aa(lp2594
Vonly
p2595
aI1299
aa(lp2596
Vspeed
p2597
aI1300
aa(lp2598
Vstools
p2599
aI1301
aa(lp2600
Vwrestlers
p2601
aI1302
aa(lp2602
Vclear
p2603
aI1303
aa(lp2604
Vhallway
p2605
aI1304
aa(lp2606
Vlips
p2607
aI1305
aa(lp2608
Vhelicopters
p2609
aI1306
aa(lp2610
Vfry
p2611
aI1307
aa(lp2612
Vjackal
p2613
aI1308
aa(lp2614
Vvase
p2615
aI1309
aa(lp2616
Vlights
p2617
aI1310
aa(lp2618
Vpancakes
p2619
aI1311
aa(lp2620
Vdrew
p2621
aI1312
aa(lp2622
Vgasoline
p2623
aI1313
aa(lp2624
Vtentacle
p2625
aI1314
aa(lp2626
Vfolded
p2627
aI1315
aa(lp2628
Vfolder
p2629
aI1316
aa(lp2630
Vfed
p2631
aI1317
aa(lp2632
Vchews
p2633
aI1318
aa(lp2634
Vstretcher
p2635
aI1319
aa(lp2636
Vdipped
p2637
aI1320
aa(lp2638
Vtrapeze
p2639
aI1321
aa(lp2640
Vstyling
p2641
aI1322
aa(lp2642
Vspice
p2643
aI1323
aa(lp2644
Vbrushes
p2645
aI1324
aa(lp2646
Vfur
p2647
aI1325
aa(lp2648
Vkeys
p2649
aI1326
aa(lp2650
Vtap
p2651
aI1327
aa(lp2652
Vtrail
p2653
aI1328
aa(lp2654
Vtearing
p2655
aI1329
aa(lp2656
Vsets
p2657
aI1330
aa(lp2658
Vcoaster
p2659
aI1331
aa(lp2660
Vnail
p2661
aI1332
aa(lp2662
Vleafy
p2663
aI1333
aa(lp2664
Vpops
p2665
aI1334
aa(lp2666
Vmodel
p2667
aI1335
aa(lp2668
Vstand
p2669
aI1336
aa(lp2670
Vthere
p2671
aI1337
aa(lp2672
Vflies
p2673
aI1338
aa(lp2674
Vsmaller
p2675
aI1339
aa(lp2676
Vhurdles
p2677
aI1340
aa(lp2678
Vnecklace
p2679
aI1341
aa(lp2680
Vcovered
p2681
aI1342
aa(lp2682
Vconversation
p2683
aI1343
aa(lp2684
Vshallow
p2685
aI1344
aa(lp2686
Vkisses
p2687
aI1345
aa(lp2688
Vfishing
p2689
aI1346
aa(lp2690
Vcatching
p2691
aI1347
aa(lp2692
Vbabies
p2693
aI1348
aa(lp2694
Vsmelling
p2695
aI1349
aa(lp2696
Vwolves
p2697
aI1350
aa(lp2698
Vrunners
p2699
aI1351
aa(lp2700
Vtraining
p2701
aI1352
aa(lp2702
Vtyping
p2703
aI1353
aa(lp2704
Vcoats
p2705
aI1354
aa(lp2706
Vscreen
p2707
aI1355
aa(lp2708
Vboar
p2709
aI1356
aa(lp2710
Vcreature
p2711
aI1357
aa(lp2712
Vreporters
p2713
aI1358
aa(lp2714
Vraced
p2715
aI1359
aa(lp2716
Vrobin
p2717
aI1360
aa(lp2718
Vpecking
p2719
aI1361
aa(lp2720
Vpalm
p2721
aI1362
aa(lp2722
Vgreat
p2723
aI1363
aa(lp2724
Vslid
p2725
aI1364
aa(lp2726
Vbikes
p2727
aI1365
aa(lp2728
Vpacket
p2729
aI1366
aa(lp2730
Vdrum
p2731
aI1367
aa(lp2732
Vdrank
p2733
aI1368
aa(lp2734
Vchalkboard
p2735
aI1369
aa(lp2736
Vhissing
p2737
aI1370
aa(lp2738
Vcarton
p2739
aI1371
aa(lp2740
Vfeeds
p2741
aI1372
aa(lp2742
Vcontents
p2743
aI1373
aa(lp2744
Vspace
p2745
aI1374
aa(lp2746
Vchecked
p2747
aI1375
aa(lp2748
Vconcert
p2749
aI1376
aa(lp2750
Vtaxi
p2751
aI1377
aa(lp2752
Vleek
p2753
aI1378
aa(lp2754
Vheavy
p2755
aI1379
aa(lp2756
Vcleaver
p2757
aI1380
aa(lp2758
Vantenna
p2759
aI1381
aa(lp2760
Vgymnast
p2761
aI1382
aa(lp2762
Varena
p2763
aI1383
aa(lp2764
Vsurrounded
p2765
aI1384
aa(lp2766
Vgrocery
p2767
aI1385
aa(lp2768
Vmobile
p2769
aI1386
aa(lp2770
Vpictures
p2771
aI1387
aa(lp2772
Vreads
p2773
aI1388
aa(lp2774
Vstructure
p2775
aI1389
aa(lp2776
Vgo
p2777
aI1390
aa(lp2778
Vcrossing
p2779
aI1391
aa(lp2780
Vherself
p2781
aI1392
aa(lp2782
Vneck
p2783
aI1393
aa(lp2784
Vhome
p2785
aI1394
aa(lp2786
Vkissed
p2787
aI1395
aa(lp2788
Vbarks
p2789
aI1396
aa(lp2790
Vadult
p2791
aI1397
aa(lp2792
Vdeck
p2793
aI1398
aa(lp2794
Venclosure
p2795
aI1399
aa(lp2796
Vdistance
p2797
aI1400
aa(lp2798
Vcans
p2799
aI1401
aa(lp2800
Vbelly
p2801
aI1402
aa(lp2802
Velderly
p2803
aI1403
aa(lp2804
Vbatman
p2805
aI1404
aa(lp2806
Vsheets
p2807
aI1405
aa(lp2808
Vtrotted
p2809
aI1406
aa(lp2810
Vchecks
p2811
aI1407
aa(lp2812
Vserved
p2813
aI1408
aa(lp2814
Vmixer
p2815
aI1409
aa(lp2816
Vpotatos
p2817
aI1410
aa(lp2818
Vcups
p2819
aI1411
aa(lp2820
Vfine
p2821
aI1412
aa(lp2822
Vleopard
p2823
aI1413
aa(lp2824
Vothers
p2825
aI1414
aa(lp2826
Vclosing
p2827
aI1415
aa(lp2828
Vpopping
p2829
aI1416
aa(lp2830
Vbeak
p2831
aI1417
aa(lp2832
Vcenter
p2833
aI1418
aa(lp2834
Vthinly
p2835
aI1419
aa(lp2836
Vtrolley
p2837
aI1420
aa(lp2838
Vfilling
p2839
aI1421
aa(lp2840
Vwashed
p2841
aI1422
aa(lp2842
Vcharacters
p2843
aI1423
aa(lp2844
Vgazelle
p2845
aI1424
aa(lp2846
Vgames
p2847
aI1425
aa(lp2848
Vbathroom
p2849
aI1426
aa(lp2850
Vpapaya
p2851
aI1427
aa(lp2852
Vmelting
p2853
aI1428
aa(lp2854
Vwombat
p2855
aI1429
aa(lp2856
Vstacks
p2857
aI1430
aa(lp2858
Vducklings
p2859
aI1431
aa(lp2860
Vgives
p2861
aI1432
aa(lp2862
Vsuperman
p2863
aI1433
aa(lp2864
Vpicnic
p2865
aI1434
aa(lp2866
Vbouillon
p2867
aI1435
aa(lp2868
Vgrabbing
p2869
aI1436
aa(lp2870
Voutdoors
p2871
aI1437
aa(lp2872
Vquail
p2873
aI1438
aa(lp2874
Vsections
p2875
aI1439
aa(lp2876
Vclub
p2877
aI1440
aa(lp2878
Vfew
p2879
aI1441
aa(lp2880
Vfiddle
p2881
aI1442
aa(lp2882
Vshell
p2883
aI1443
aa(lp2884
Vspun
p2885
aI1444
aa(lp2886
Vwild
p2887
aI1445
aa(lp2888
Vloses
p2889
aI1446
aa(lp2890
Vtwirling
p2891
aI1447
aa(lp2892
Vscreaming
p2893
aI1448
aa(lp2894
Vwooded
p2895
aI1449
aa(lp2896
Vherd
p2897
aI1450
aa(lp2898
Vgolden
p2899
aI1451
aa(lp2900
Vtouches
p2901
aI1452
aa(lp2902
Vrings
p2903
aI1453
aa(lp2904
Vsplit
p2905
aI1454
aa(lp2906
Vforming
p2907
aI1455
aa(lp2908
Vplucking
p2909
aI1456
aa(lp2910
Vfollowing
p2911
aI1457
aa(lp2912
Vso
p2913
aI1458
aa(lp2914
Vcourse
p2915
aI1459
aa(lp2916
Vmatches
p2917
aI1460
aa(lp2918
Vdrilling
p2919
aI1461
aa(lp2920
Vspooning
p2921
aI1462
aa(lp2922
Vgrilling
p2923
aI1463
aa(lp2924
Vwhere
p2925
aI1464
aa(lp2926
Vvacuum
p2927
aI1465
aa(lp2928
Vwraps
p2929
aI1466
aa(lp2930
Vsesame
p2931
aI1467
aa(lp2932
Vbacking
p2933
aI1468
aa(lp2934
Vducks
p2935
aI1469
aa(lp2936
Vskateboards
p2937
aI1470
aa(lp2938
Vwhiteboard
p2939
aI1471
aa(lp2940
Vindex
p2941
aI1472
aa(lp2942
Vfaucet
p2943
aI1473
aa(lp2944
Vnibbling
p2945
aI1474
aa(lp2946
Vdock
p2947
aI1475
aa(lp2948
Vroomba
p2949
aI1476
aa(lp2950
Vemail
p2951
aI1477
aa(lp2952
Vramp
p2953
aI1478
aa(lp2954
Vmotor-cycle
p2955
aI1479
aa(lp2956
Vcombing
p2957
aI1480
aa(lp2958
Vchecking
p2959
aI1481
aa(lp2960
Vbeneath
p2961
aI1482
aa(lp2962
Vtossed
p2963
aI1483
aa(lp2964
Vpost
p2965
aI1484
aa(lp2966
Vstired
p2967
aI1485
aa(lp2968
Vhorseback
p2969
aI1486
aa(lp2970
Vstair
p2971
aI1487
aa(lp2972
Vleather
p2973
aI1488
aa(lp2974
Vkneads
p2975
aI1489
aa(lp2976
Vwallaby
p2977
aI1490
aa(lp2978
Vrubs
p2979
aI1491
aa(lp2980
Vsucking
p2981
aI1492
aa(lp2982
Vdancers
p2983
aI1493
aa(lp2984
Vgrates
p2985
aI1494
aa(lp2986
Vsmashes
p2987
aI1495
aa(lp2988
Vpointing
p2989
aI1496
aa(lp2990
Vstorm
p2991
aI1497
aa(lp2992
Vgrey
p2993
aI1498
aa(lp2994
Vtongs
p2995
aI1499
aa(lp2996
Vclean
p2997
aI1500
aa(lp2998
Vpack
p2999
aI1501
aa(lp3000
Vdips
p3001
aI1502
aa(lp3002
Vsoldiers
p3003
aI1503
aa(lp3004
Vuncooked
p3005
aI1504
aa(lp3006
Vwatering
p3007
aI1505
aa(lp3008
Vtype
p3009
aI1506
aa(lp3010
Vlaughs
p3011
aI1507
aa(lp3012
Vstop
p3013
aI1508
aa(lp3014
Vpracticed
p3015
aI1509
aa(lp3016
Vcarts
p3017
aI1510
aa(lp3018
Vfork
p3019
aI1511
aa(lp3020
Volive
p3021
aI1512
aa(lp3022
Vpathway
p3023
aI1513
aa(lp3024
Vtall
p3025
aI1514
aa(lp3026
Vstraightening
p3027
aI1515
aa(lp3028
Vassault
p3029
aI1516
aa(lp3030
Vmiddle
p3031
aI1517
aa(lp3032
Vbuggy
p3033
aI1518
aa(lp3034
Vnarrow
p3035
aI1519
aa(lp3036
Vcostumed
p3037
aI1520
aa(lp3038
Vprepares
p3039
aI1521
aa(lp3040
Vsing
p3041
aI1522
aa(lp3042
Vclimb
p3043
aI1523
aa(lp3044
Vgear
p3045
aI1524
aa(lp3046
Vmascara
p3047
aI1525
aa(lp3048
Vattempting
p3049
aI1526
aa(lp3050
Vstatues
p3051
aI1527
aa(lp3052
Vshuttle
p3053
aI1528
aa(lp3054
Vsoft
p3055
aI1529
aa(lp3056
Vstares
p3057
aI1530
aa(lp3058
Vjungle
p3059
aI1531
aa(lp3060
Vsoda
p3061
aI1532
aa(lp3062
Vbrushed
p3063
aI1533
aa(lp3064
Vwatch
p3065
aI1534
aa(lp3066
Vtwice
p3067
aI1535
aa(lp3068
Vrodent
p3069
aI1536
aa(lp3070
Vmultiple
p3071
aI1537
aa(lp3072
Vskewered
p3073
aI1538
aa(lp3074
Vfloured
p3075
aI1539
aa(lp3076
Veyeliner
p3077
aI1540
aa(lp3078
Vswords
p3079
aI1541
aa(lp3080
Vstrange
p3081
aI1542
aa(lp3082
Vmachete
p3083
aI1543
aa(lp3084
Vmake-up
p3085
aI1544
aa(lp3086
Vclown
p3087
aI1545
aa(lp3088
Vvolleyballs
p3089
aI1546
aa(lp3090
Vwrestle
p3091
aI1547
aa(lp3092
Vtraveling
p3093
aI1548
aa(lp3094
Vsomeoen
p3095
aI1549
aa(lp3096
Vclass
p3097
aI1550
aa(lp3098
Vpipe
p3099
aI1551
aa(lp3100
Vlobby
p3101
aI1552
aa(lp3102
Vpods
p3103
aI1553
aa(lp3104
Vlori
p3105
aI1554
aa(lp3106
Vtying
p3107
aI1555
aa(lp3108
Vcougar
p3109
aI1556
aa(lp3110
Vgreens
p3111
aI1557
aa(lp3112
Vpatch
p3113
aI1558
aa(lp3114
Vgrazing
p3115
aI1559
aa(lp3116
Valice
p3117
aI1560
aa(lp3118
Vlays
p3119
aI1561
aa(lp3120
Vbonfire
p3121
aI1562
aa(lp3122
Vangry
p3123
aI1563
aa(lp3124
Vbutterfly
p3125
aI1564
aa(lp3126
Vlotus
p3127
aI1565
aa(lp3128
Vhockey
p3129
aI1566
aa(lp3130
Vsqueezes
p3131
aI1567
aa(lp3132
Vbricks
p3133
aI1568
aa(lp3134
Vclay
p3135
aI1569
aa(lp3136
Vlegged
p3137
aI1570
aa(lp3138
Vsomeones
p3139
aI1571
aa(lp3140
Vballerina
p3141
aI1572
aa(lp3142
Vcover
p3143
aI1573
aa(lp3144
Vwrites
p3145
aI1574
aa(lp3146
Vchurch
p3147
aI1575
aa(lp3148
Vresting
p3149
aI1576
aa(lp3150
Vstraight
p3151
aI1577
aa(lp3152
Vflooded
p3153
aI1578
aa(lp3154
Vtasting
p3155
aI1579
aa(lp3156
Vus
p3157
aI1580
aa(lp3158
Vkey-board
p3159
aI1581
aa(lp3160
Vpigs
p3161
aI1582
aa(lp3162
Vprawns
p3163
aI1583
aa(lp3164
Vcoriander
p3165
aI1584
aa(lp3166
Vsergeant
p3167
aI1585
aa(lp3168
Vrobot
p3169
aI1586
aa(lp3170
Vcd
p3171
aI1587
aa(lp3172
Vtosses
p3173
aI1588
aa(lp3174
Vlizard
p3175
aI1589
aa(lp3176
Valligator
p3177
aI1590
aa(lp3178
Vprawn
p3179
aI1591
aa(lp3180
Vlollipop
p3181
aI1592
aa(lp3182
Vcop
p3183
aI1593
aa(lp3184
Vmusical
p3185
aI1594
aa(lp3186
Vphoto
p3187
aI1595
aa(lp3188
Vnuzzled
p3189
aI1596
aa(lp3190
Vwad
p3191
aI1597
aa(lp3192
Vdying
p3193
aI1598
aa(lp3194
Vgrape
p3195
aI1599
aa(lp3196
Vcold
p3197
aI1600
aa(lp3198
Vtilling
p3199
aI1601
aa(lp3200
Vsnowboarder
p3201
aI1602
aa(lp3202
Vpodium
p3203
aI1603
aa(lp3204
Vstreets
p3205
aI1604
aa(lp3206
Vdribbling
p3207
aI1605
aa(lp3208
Vpeanuts
p3209
aI1606
aa(lp3210
Vbase
p3211
aI1607
aa(lp3212
Vstation
p3213
aI1608
aa(lp3214
Vduring
p3215
aI1609
aa(lp3216
Vlobsters
p3217
aI1610
aa(lp3218
Vmissile
p3219
aI1611
aa(lp3220
Vcircular
p3221
aI1612
aa(lp3222
Vshowering
p3223
aI1613
aa(lp3224
Vwading
p3225
aI1614
aa(lp3226
Vankle
p3227
aI1615
aa(lp3228
Vpull-ups
p3229
aI1616
aa(lp3230
Vdemonstrated
p3231
aI1617
aa(lp3232
Vbeats
p3233
aI1618
aa(lp3234
Vfoil
p3235
aI1619
aa(lp3236
Vorchestra
p3237
aI1620
aa(lp3238
Vloaded
p3239
aI1621
aa(lp3240
Vtrimming
p3241
aI1622
aa(lp3242
Vopposite
p3243
aI1623
aa(lp3244
Vsailing
p3245
aI1624
aa(lp3246
Vgrassland
p3247
aI1625
aa(lp3248
Vshow
p3249
aI1626
aa(lp3250
Vrugby
p3251
aI1627
aa(lp3252
Vsquash
p3253
aI1628
aa(lp3254
Vwake
p3255
aI1629
aa(lp3256
Vbeachside
p3257
aI1630
aa(lp3258
Vstrip
p3259
aI1631
aa(lp3260
Vdrills
p3261
aI1632
aa(lp3262
Vagain
p3263
aI1633
aa(lp3264
Vtortoise
p3265
aI1634
aa(lp3266
Vstretching
p3267
aI1635
aa(lp3268
Vforward
p3269
aI1636
aa(lp3270
Vprepared
p3271
aI1637
aa(lp3272
Vdesert
p3273
aI1638
aa(lp3274
Vbones
p3275
aI1639
aa(lp3276
Vhugged
p3277
aI1640
aa(lp3278
Vflashes
p3279
aI1641
aa(lp3280
Vpatting
p3281
aI1642
aa(lp3282
Vunderwater
p3283
aI1643
aa(lp3284
Vbut
p3285
aI1644
aa(lp3286
Vmonkeys
p3287
aI1645
aa(lp3288
Vschool
p3289
aI1646
aa(lp3290
Vstudio
p3291
aI1647
aa(lp3292
Vstraw
p3293
aI1648
aa(lp3294
Vlaid
p3295
aI1649
aa(lp3296
Vtoo
p3297
aI1650
aa(lp3298
Vprone
p3299
aI1651
aa(lp3300
Vlaughed
p3301
aI1652
aa(lp3302
Vearth
p3303
aI1653
aa(lp3304
Vassembling
p3305
aI1654
aa(lp3306
Vlaptop
p3307
aI1655
aa(lp3308
Vhung
p3309
aI1656
aa(lp3310
Vsetting
p3311
aI1657
aa(lp3312
Vbullet
p3313
aI1658
aa(lp3314
Vrod
p3315
aI1659
aa(lp3316
Vcinnamon
p3317
aI1660
aa(lp3318
Vcrashed
p3319
aI1661
aa(lp3320
Vplatform
p3321
aI1662
aa(lp3322
Valuminum
p3323
aI1663
aa(lp3324
Vstroking
p3325
aI1664
aa(lp3326
Vcase
p3327
aI1665
aa(lp3328
Velectrocuted
p3329
aI1666
aa(lp3330
Vkneeling
p3331
aI1667
aa(lp3332
Vtin
p3333
aI1668
aa(lp3334
Vshort
p3335
aI1669
aa(lp3336
Vhunter
p3337
aI1670
aa(lp3338
Vbigger
p3339
aI1671
aa(lp3340
Vhangs
p3341
aI1672
aa(lp3342
Vcleaned
p3343
aI1673
aa(lp3344
Vnumerous
p3345
aI1674
aa(lp3346
Vwoke
p3347
aI1675
aa(lp3348
Vreferee
p3349
aI1676
aa(lp3350
Vstrumming
p3351
aI1677
aa(lp3352
Vbacks
p3353
aI1678
aa(lp3354
Vwaiting
p3355
aI1679
aa(lp3356
Vscales
p3357
aI1680
aa(lp3358
Vwalruses
p3359
aI1681
aa(lp3360
Vape
p3361
aI1682
aa(lp3362
Vsit
p3363
aI1683
aa(lp3364
Vhandgun
p3365
aI1684
aa(lp3366
Vcarried
p3367
aI1685
aa(lp3368
Vbook
p3369
aI1686
aa(lp3370
Vpooped
p3371
aI1687
aa(lp3372
Vdiagram
p3373
aI1688
aa(lp3374
Vtypes
p3375
aI1689
aa(lp3376
Vkeeps
p3377
aI1690
aa(lp3378
Vbowls
p3379
aI1691
aa(lp3380
Vracers
p3381
aI1692
aa(lp3382
Vtrashcan
p3383
aI1693
aa(lp3384
V``
p3385
aI1694
aa(lp3386
Vpealing
p3387
aI1695
aa(lp3388
Vkomodo
p3389
aI1696
aa(lp3390
Vcantaloupe
p3391
aI1697
aa(lp3392
Vleaping
p3393
aI1698
aa(lp3394
Vbackyard
p3395
aI1699
aa(lp3396
Vlipstick
p3397
aI1700
aa(lp3398
Vboarding
p3399
aI1701
aa(lp3400
Vsilencer
p3401
aI1702
aa(lp3402
Vchase
p3403
aI1703
aa(lp3404
Vchest
p3405
aI1704
aa(lp3406
Venclosed
p3407
aI1705
aa(lp3408
Vdishes
p3409
aI1706
aa(lp3410
Vsoap
p3411
aI1707
aa(lp3412
Vdevice
p3413
aI1708
aa(lp3414
Vdust
p3415
aI1709
aa(lp3416
Vdesk
p3417
aI1710
aa(lp3418
Vplanting
p3419
aI1711
aa(lp3420
Vitems
p3421
aI1712
aa(lp3422
Vlap
p3423
aI1713
aa(lp3424
Vavocado
p3425
aI1714
aa(lp3426
Vrocky
p3427
aI1715
aa(lp3428
Vbraiding
p3429
aI1716
aa(lp3430
Vcovering
p3431
aI1717
aa(lp3432
Vhandful
p3433
aI1718
aa(lp3434
Vpoms
p3435
aI1719
aa(lp3436
Vpurple
p3437
aI1720
aa(lp3438
Vlive
p3439
aI1721
aa(lp3440
Vcab
p3441
aI1722
aa(lp3442
Vgrassy
p3443
aI1723
aa(lp3444
Vpuddle
p3445
aI1724
aa(lp3446
Vattached
p3447
aI1725
aa(lp3448
Vinflatable
p3449
aI1726
aa(lp3450
Vtossing
p3451
aI1727
aa(lp3452
Vread
p3453
aI1728
aa(lp3454
Vwolf
p3455
aI1729
aa(lp3456
Vprocessor
p3457
aI1730
aa(lp3458
Vstart
p3459
aI1731
aa(lp3460
Voxen
p3461
aI1732
aa(lp3462
Vstorage
p3463
aI1733
aa(lp3464
Vbalancing
p3465
aI1734
aa(lp3466
Vknocking
p3467
aI1735
aa(lp3468
Vdune
p3469
aI1736
aa(lp3470
Vselling
p3471
aI1737
aa(lp3472
Vweapon
p3473
aI1738
aa(lp3474
Vlit
p3475
aI1739
aa(lp3476
Voxi
p3477
aI1740
aa(lp3478
Vpractice
p3479
aI1741
aa(lp3480
Vvessel
p3481
aI1742
aa(lp3482
Vquarters
p3483
aI1743
aa(lp3484
Vparade
p3485
aI1744
aa(lp3486
Vukulele
p3487
aI1745
aa(lp3488
Vwhisks
p3489
aI1746
aa(lp3490
Vseparating
p3491
aI1747
aa(lp3492
Vcoated
p3493
aI1748
aa(lp3494
Vswan
p3495
aI1749
aa(lp3496
Vteaching
p3497
aI1750
aa(lp3498
Vbegins
p3499
aI1751
aa(lp3500
Vseed
p3501
aI1752
aa(lp3502
Vscraping
p3503
aI1753
aa(lp3504
Vlionel
p3505
aI1754
aa(lp3506
Vdunking
p3507
aI1755
aa(lp3508
Vyelling
p3509
aI1756
aa(lp3510
Vcones
p3511
aI1757
aa(lp3512
Vcovers
p3513
aI1758
aa(lp3514
Vmanages
p3515
aI1759
aa(lp3516
Vbattered
p3517
aI1760
aa(lp3518
Vfirst
p3519
aI1761
aa(lp3520
Vfills
p3521
aI1762
aa(lp3522
Vseat
p3523
aI1763
aa(lp3524
Vstacked
p3525
aI1764
aa(lp3526
Vairport
p3527
aI1765
aa(lp3528
Vtown
p3529
aI1766
aa(lp3530
Vdribbles
p3531
aI1767
aa(lp3532
Vpart
p3533
aI1768
aa(lp3534
Vnewborn
p3535
aI1769
aa(lp3536
Vfollows
p3537
aI1770
aa(lp3538
V&
p3539
aI1771
aa(lp3540
Vpacking
p3541
aI1772
aa(lp3542
Vobjects
p3543
aI1773
aa(lp3544
Vlimb
p3545
aI1774
aa(lp3546
Vapproached
p3547
aI1775
aa(lp3548
Vdryer
p3549
aI1776
aa(lp3550
Vpartially
p3551
aI1777
aa(lp3552
Vbundle
p3553
aI1778
aa(lp3554
Vswings
p3555
aI1779
aa(lp3556
Vcrushed
p3557
aI1780
aa(lp3558
Vtool
p3559
aI1781
aa(lp3560
Vantifreeze
p3561
aI1782
aa(lp3562
Vrounds
p3563
aI1783
aa(lp3564
Vremoved
p3565
aI1784
aa(lp3566
Vmeows
p3567
aI1785
aa(lp3568
Vhammers
p3569
aI1786
aa(lp3570
Vzebra
p3571
aI1787
aa(lp3572
Vturn
p3573
aI1788
aa(lp3574
Vbatting
p3575
aI1789
aa(lp3576
Vsilhouette
p3577
aI1790
aa(lp3578
Vsimmering
p3579
aI1791
aa(lp3580
Vpom
p3581
aI1792
aa(lp3582
Vwithout
p3583
aI1793
aa(lp3584
Vtip
p3585
aI1794
aa(lp3586
Vrubber
p3587
aI1795
aa(lp3588
Vcrust
p3589
aI1796
aa(lp3590
Vflat
p3591
aI1797
aa(lp3592
Vspeeding
p3593
aI1798
aa(lp3594
Vstyle
p3595
aI1799
aa(lp3596
Vlemurs
p3597
aI1800
aa(lp3598
Vpasses
p3599
aI1801
aa(lp3600
Vleading
p3601
aI1802
aa(lp3602
Vsweet
p3603
aI1803
aa(lp3604
Vcrash
p3605
aI1804
aa(lp3606
Vcloses
p3607
aI1805
aa(lp3608
Vhammering
p3609
aI1806
aa(lp3610
Vunderneath
p3611
aI1807
aa(lp3612
Vspiral
p3613
aI1808
aa(lp3614
Vrailing
p3615
aI1809
aa(lp3616
Vsecond
p3617
aI1810
aa(lp3618
Vbrought
p3619
aI1811
aa(lp3620
Vspoke
p3621
aI1812
aa(lp3622
Vfoundation
p3623
aI1813
aa(lp3624
Vroni
p3625
aI1814
aa(lp3626
Vletter
p3627
aI1815
aa(lp3628
Vbush
p3629
aI1816
aa(lp3630
Vobese
p3631
aI1817
aa(lp3632
Vworker
p3633
aI1818
aa(lp3634
Vokra
p3635
aI1819
aa(lp3636
Vshakes
p3637
aI1820
aa(lp3638
Vjuicing
p3639
aI1821
aa(lp3640
Vfabric
p3641
aI1822
aa(lp3642
Vgreenery
p3643
aI1823
aa(lp3644
Vsniffed
p3645
aI1824
aa(lp3646
Vskate
p3647
aI1825
aa(lp3648
Vvet
p3649
aI1826
aa(lp3650
Vicing
p3651
aI1827
aa(lp3652
Vlimbs
p3653
aI1828
aa(lp3654
Vsquares
p3655
aI1829
aa(lp3656
Vturned
p3657
aI1830
aa(lp3658
Vbicyclist
p3659
aI1831
aa(lp3660
Vsuitcases
p3661
aI1832
aa(lp3662
Vteacup
p3663
aI1833
aa(lp3664
Vtwig
p3665
aI1834
aa(lp3666
Vtrains
p3667
aI1835
aa(lp3668
Vact
p3669
aI1836
aa(lp3670
Vgurney
p3671
aI1837
aa(lp3672
Vwatched
p3673
aI1838
aa(lp3674
Vnori
p3675
aI1839
aa(lp3676
Vfollowed
p3677
aI1840
aa(lp3678
Vhugs
p3679
aI1841
aa(lp3680
Vroots
p3681
aI1842
aa(lp3682
Vscoops
p3683
aI1843
aa(lp3684
Vplowing
p3685
aI1844
aa(lp3686
Vfights
p3687
aI1845
aa(lp3688
Vknees
p3689
aI1846
aa(lp3690
Vscallop
p3691
aI1847
aa(lp3692
Vknitting
p3693
aI1848
aa(lp3694
Vinspects
p3695
aI1849
aa(lp3696
Vfixing
p3697
aI1850
aa(lp3698
Vparakeet
p3699
aI1851
aa(lp3700
Vderby
p3701
aI1852
aa(lp3702
Vtightrope
p3703
aI1853
aa(lp3704
Vsurgeons
p3705
aI1854
aa(lp3706
Vgently
p3707
aI1855
aa(lp3708
Vpetals
p3709
aI1856
aa(lp3710
Vstuff
p3711
aI1857
aa(lp3712
Vends
p3713
aI1858
aa(lp3714
Vrams
p3715
aI1859
aa(lp3716
Vpier
p3717
aI1860
aa(lp3718
Vhiding
p3719
aI1861
aa(lp3720
Vswimmers
p3721
aI1862
aa(lp3722
Vconstruction
p3723
aI1863
aa(lp3724
Vnuts
p3725
aI1864
aa(lp3726
Vinterview
p3727
aI1865
aa(lp3728
Vreaches
p3729
aI1866
aa(lp3730
Vsled
p3731
aI1867
aa(lp3732
Velectronic
p3733
aI1868
aa(lp3734
Vmincing
p3735
aI1869
aa(lp3736
Vsouse
p3737
aI1870
aa(lp3738
Vrail
p3739
aI1871
aa(lp3740
Vboxed
p3741
aI1872
aa(lp3742
Vbreaded
p3743
aI1873
aa(lp3744
Vgutting
p3745
aI1874
aa(lp3746
Vnitrogen
p3747
aI1875
aa(lp3748
Vscaling
p3749
aI1876
aa(lp3750
Vfriend
p3751
aI1877
aa(lp3752
Vbi-cycle
p3753
aI1878
aa(lp3754
Vslam
p3755
aI1879
aa(lp3756
Vwheels
p3757
aI1880
aa(lp3758
Vstems
p3759
aI1881
aa(lp3760
Vwrecks
p3761
aI1882
aa(lp3762
Vthinking
p3763
aI1883
aa(lp3764
Vbusiness
p3765
aI1884
aa(lp3766
Vsniffs
p3767
aI1885
aa(lp3768
Vyou
p3769
aI1886
aa(lp3770
Vflaming
p3771
aI1887
aa(lp3772
Vbarbell
p3773
aI1888
aa(lp3774
Vpretending
p3775
aI1889
aa(lp3776
Vinstructing
p3777
aI1890
aa(lp3778
Vlathe
p3779
aI1891
aa(lp3780
Vdvd
p3781
aI1892
aa(lp3782
Vhalloween
p3783
aI1893
aa(lp3784
Vdiagonal
p3785
aI1894
aa(lp3786
Vkeep
p3787
aI1895
aa(lp3788
Vmotorcyle
p3789
aI1896
aa(lp3790
Vpushups
p3791
aI1897
aa(lp3792
Vpurchasing
p3793
aI1898
aa(lp3794
Vtire
p3795
aI1899
aa(lp3796
Vcontrolled
p3797
aI1900
aa(lp3798
Vsingle
p3799
aI1901
aa(lp3800
Vtreadmills
p3801
aI1902
aa(lp3802
Vnew
p3803
aI1903
aa(lp3804
Vstabbing
p3805
aI1904
aa(lp3806
Vscrubbing
p3807
aI1905
aa(lp3808
Vcolorful
p3809
aI1906
aa(lp3810
Vbeater
p3811
aI1907
aa(lp3812
Vpets
p3813
aI1908
aa(lp3814
Vheight
p3815
aI1909
aa(lp3816
Vmelted
p3817
aI1910
aa(lp3818
Vlies
p3819
aI1911
aa(lp3820
Vfinally
p3821
aI1912
aa(lp3822
Vskates
p3823
aI1913
aa(lp3824
Vcorner
p3825
aI1914
aa(lp3826
Vpressing
p3827
aI1915
aa(lp3828
Vdoctor
p3829
aI1916
aa(lp3830
Vpad
p3831
aI1917
aa(lp3832
Vdoll
p3833
aI1918
aa(lp3834
Vsuitcase
p3835
aI1919
aa(lp3836
Vcreatures
p3837
aI1920
aa(lp3838
Vempties
p3839
aI1921
aa(lp3840
Vlanded
p3841
aI1922
aa(lp3842
Vnumbers
p3843
aI1923
aa(lp3844
Vsharp
p3845
aI1924
aa(lp3846
Vspeech
p3847
aI1925
aa(lp3848
Vhare
p3849
aI1926
aa(lp3850
Vcapsicum
p3851
aI1927
aa(lp3852
Vbamboo
p3853
aI1928
aa(lp3854
Veither
p3855
aI1929
aa(lp3856
Vslams
p3857
aI1930
aa(lp3858
Vexplaining
p3859
aI1931
aa(lp3860
Vbleeding
p3861
aI1932
aa(lp3862
Vlight
p3863
aI1933
aa(lp3864
Vhave
p3865
aI1934
aa(lp3866
Vsplits
p3867
aI1935
aa(lp3868
Vplain
p3869
aI1936
aa(lp3870
Vinjured
p3871
aI1937
aa(lp3872
Vslits
p3873
aI1938
aa(lp3874
Vrice-a-roni
p3875
aI1939
aa(lp3876
Vyanks
p3877
aI1940
aa(lp3878
Vcrumbs
p3879
aI1941
aa(lp3880
Vthree-legged
p3881
aI1942
aa(lp3882
Vshots
p3883
aI1943
aa(lp3884
Vwelsh
p3885
aI1944
aa(lp3886
Vdisplaying
p3887
aI1945
aa(lp3888
Vfigure
p3889
aI1946
aa(lp3890
Vdropped
p3891
aI1947
aa(lp3892
Vwide
p3893
aI1948
aa(lp3894
Vjeep
p3895
aI1949
aa(lp3896
Vjug
p3897
aI1950
aa(lp3898
Vrubbed
p3899
aI1951
aa(lp3900
Vseparate
p3901
aI1952
aa(lp3902
Vskidded
p3903
aI1953
aa(lp3904
Vsuddenly
p3905
aI1954
aa(lp3906
Vwrestled
p3907
aI1955
aa(lp3908
Vequation
p3909
aI1956
aa(lp3910
Vjack-o-lantern
p3911
aI1957
aa(lp3912
Vsandcastle
p3913
aI1958
aa(lp3914
Vpassed
p3915
aI1959
aa(lp3916
Vstalk
p3917
aI1960
aa(lp3918
Vchoreographed
p3919
aI1961
aa(lp3920
Vbark
p3921
aI1962
aa(lp3922
Vfirearms
p3923
aI1963
aa(lp3924
Vcement
p3925
aI1964
aa(lp3926
Vloading
p3927
aI1965
aa(lp3928
Vfenced
p3929
aI1966
aa(lp3930
Vperched
p3931
aI1967
aa(lp3932
Vleaving
p3933
aI1968
aa(lp3934
Vinspecting
p3935
aI1969
aa(lp3936
Vdive
p3937
aI1970
aa(lp3938
Vtorpedo
p3939
aI1971
aa(lp3940
Vdangling
p3941
aI1972
aa(lp3942
Vtrotting
p3943
aI1973
aa(lp3944
Vbackpack
p3945
aI1974
aa(lp3946
Vmessage
p3947
aI1975
aa(lp3948
Vplayfully
p3949
aI1976
aa(lp3950
Vchannels
p3951
aI1977
aa(lp3952
Vhalf-pipe
p3953
aI1978
aa(lp3954
Vpaddles
p3955
aI1979
aa(lp3956
Vbodybuilder
p3957
aI1980
aa(lp3958
Vbomb
p3959
aI1981
aa(lp3960
Vblending
p3961
aI1982
aa(lp3962
Vworked
p3963
aI1983
aa(lp3964
Vthings
p3965
aI1984
aa(lp3966
Vmeadow
p3967
aI1985
aa(lp3968
Vscratches
p3969
aI1986
aa(lp3970
Vpoking
p3971
aI1987
aa(lp3972
Vspot
p3973
aI1988
aa(lp3974
Vtore
p3975
aI1989
aa(lp3976
Vquarter
p3977
aI1990
aa(lp3978
Ventering
p3979
aI1991
aa(lp3980
Vtake
p3981
aI1992
aa(lp3982
Vmand
p3983
aI1993
aa(lp3984
Vsqueezed
p3985
aI1994
aa(lp3986
Vbuying
p3987
aI1995
aa(lp3988
Vunwraps
p3989
aI1996
aa(lp3990
Vvolleyball
p3991
aI1997
aa(lp3992
Viced
p3993
aI1998
aa(lp3994
Vbumper
p3995
aI1999
aa(lp3996
Vdrunk
p3997
aI2000
aa(lp3998
Vpressed
p3999
aI2001
aa(lp4000
Vstack
p4001
aI2002
aa(lp4002
Vrichie
p4003
aI2003
aa(lp4004
Vtemple
p4005
aI2004
aa(lp4006
Vlane
p4007
aI2005
aa(lp4008
Vholes
p4009
aI2006
aa(lp4010
Vfresh
p4011
aI2007
aa(lp4012
Vmagic
p4013
aI2008
aa(lp4014
Vtwine
p4015
aI2009
aa(lp4016
Vsneezes
p4017
aI2010
aa(lp4018
Vtracer
p4019
aI2011
aa(lp4020
Vnotebook
p4021
aI2012
aa(lp4022
Vyells
p4023
aI2013
aa(lp4024
Vsteep
p4025
aI2014
aa(lp4026
Vcrocheting
p4027
aI2015
aa(lp4028
Vstuffing
p4029
aI2016
aa(lp4030
Vrobotic
p4031
aI2017
aa(lp4032
Vgymnastics
p4033
aI2018
aa(lp4034
Vdrumming
p4035
aI2019
aa(lp4036
Vsnuggling
p4037
aI2020
aa(lp4038
Vapollo
p4039
aI2021
aa(lp4040
Vproblem
p4041
aI2022
aa(lp4042
Vtrims
p4043
aI2023
aa(lp4044
Vblanket
p4045
aI2024
aa(lp4046
Vplow
p4047
aI2025
aa(lp4048
Vwork
p4049
aI2026
aa(lp4050
Vdenver
p4051
aI2027
aa(lp4052
Vflock
p4053
aI2028
aa(lp4054
Vmotorized
p4055
aI2029
aa(lp4056
Vcreated
p4057
aI2030
aa(lp4058
Vjohn
p4059
aI2031
aa(lp4060
Vhappily
p4061
aI2032
aa(lp4062
Viron
p4063
aI2033
aa(lp4064
Vdrawn
p4065
aI2034
aa(lp4066
Vplates
p4067
aI2035
aa(lp4068
Vperimeter
p4069
aI2036
aa(lp4070
Vloin
p4071
aI2037
aa(lp4072
Vtroupe
p4073
aI2038
aa(lp4074
Vappear
p4075
aI2039
aa(lp4076
Vexplosion
p4077
aI2040
aa(lp4078
Vexiting
p4079
aI2041
aa(lp4080
Vurinates
p4081
aI2042
aa(lp4082
Vnot
p4083
aI2043
aa(lp4084
Vwrap
p4085
aI2044
aa(lp4086
Vangel
p4087
aI2045
aa(lp4088
Vsledge
p4089
aI2046
aa(lp4090
Vritually
p4091
aI2047
aa(lp4092
Vnearby
p4093
aI2048
aa(lp4094
Vfinish
p4095
aI2049
aa(lp4096
Vlistening
p4097
aI2050
aa(lp4098
Vsplitting
p4099
aI2051
aa(lp4100
Vrecruits
p4101
aI2052
aa(lp4102
Vballet
p4103
aI2053
aa(lp4104
Vbreads
p4105
aI2054
aa(lp4106
Vpetted
p4107
aI2055
aa(lp4108
Vevent
p4109
aI2056
aa(lp4110
Vlip
p4111
aI2057
aa(lp4112
Vporcupine
p4113
aI2058
aa(lp4114
Vdialing
p4115
aI2059
aa(lp4116
Vready
p4117
aI2060
aa(lp4118
Vchairs
p4119
aI2061
aa(lp4120
Velectrical
p4121
aI2062
aa(lp4122
Vsuits
p4123
aI2063
aa(lp4124
Vbooth
p4125
aI2064
aa(lp4126
Vexamining
p4127
aI2065
aa(lp4128
Vcrosses
p4129
aI2066
aa(lp4130
Vcrossed
p4131
aI2067
aa(lp4132
Vouter
p4133
aI2068
aa(lp4134
Vwrapper
p4135
aI2069
aa(lp4136
Vattack
p4137
aI2070
aa(lp4138
Vblades
p4139
aI2071
aa(lp4140
Vkey
p4141
aI2072
aa(lp4142
Vchalk
p4143
aI2073
aa(lp4144
Vparts
p4145
aI2074
aa(lp4146
Vping-pong
p4147
aI2075
aa(lp4148
Vdemonstrates
p4149
aI2076
aa(lp4150
Vswam
p4151
aI2077
aa(lp4152
Vcruising
p4153
aI2078
aa(lp4154
Vbikini
p4155
aI2079
aa(lp4156
Varmy
p4157
aI2080
aa(lp4158
Vobstacle
p4159
aI2081
aa(lp4160
Vfoods
p4161
aI2082
aa(lp4162
Vbushes
p4163
aI2083
aa(lp4164
Vscoring
p4165
aI2084
aa(lp4166
Vchihuahua
p4167
aI2085
aa(lp4168
Vmini
p4169
aI2086
aa(lp4170
Vsees
p4171
aI2087
aa(lp4172
Vpoints
p4173
aI2088
aa(lp4174
Vattempts
p4175
aI2089
aa(lp4176
Vstepping
p4177
aI2090
aa(lp4178
Vbearded
p4179
aI2091
aa(lp4180
Vsmokes
p4181
aI2092
aa(lp4182
Vsmoked
p4183
aI2093
aa(lp4184
Vsave
p4185
aI2094
aa(lp4186
Vcarving
p4187
aI2095
aa(lp4188
Vtransfers
p4189
aI2096
aa(lp4190
Vteeth
p4191
aI2097
aa(lp4192
Vgazebo
p4193
aI2098
aa(lp4194
Vsalting
p4195
aI2099
aa(lp4196
Vsomersault
p4197
aI2100
aa(lp4198
Vtill
p4199
aI2101
aa(lp4200
Vthing
p4201
aI2102
aa(lp4202
Vgathering
p4203
aI2103
aa(lp4204
Vskinned
p4205
aI2104
aa(lp4206
Vmovements
p4207
aI2105
aa(lp4208
Vaiming
p4209
aI2106
aa(lp4210
Vvertically
p4211
aI2107
aa(lp4212
Vfacing
p4213
aI2108
aa(lp4214
Vdownstairs
p4215
aI2109
aa(lp4216
Vsurfer
p4217
aI2110
aa(lp4218
Vbarked
p4219
aI2111
aa(lp4220
Vlemons
p4221
aI2112
aa(lp4222
Vrevive
p4223
aI2113
aa(lp4224
Vbackseat
p4225
aI2114
aa(lp4226
Vreverse
p4227
aI2115
aa(lp4228
Vbruce
p4229
aI2116
aa(lp4230
Vmayonnaise
p4231
aI2117
aa(lp4232
Vtablespoon
p4233
aI2118
aa(lp4234
Vingredient
p4235
aI2119
aa(lp4236
Vhuddled
p4237
aI2120
aa(lp4238
Vbounces
p4239
aI2121
aa(lp4240
Vnuzzling
p4241
aI2122
aa(lp4242
Vscoop
p4243
aI2123
aa(lp4244
Vmic
p4245
aI2124
aa(lp4246
Vparks
p4247
aI2125
aa(lp4248
Vstrikes
p4249
aI2126
aa(lp4250
Vphotographs
p4251
aI2127
aa(lp4252
Vbeat
p4253
aI2128
aa(lp4254
Vbull
p4255
aI2129
aa(lp4256
Valmost
p4257
aI2130
aa(lp4258
Vmatchbook
p4259
aI2131
aa(lp4260
Vadd
p4261
aI2132
aa(lp4262
Vsocks
p4263
aI2133
aa(lp4264
Vcrawled
p4265
aI2134
aa(lp4266
Vtiller
p4267
aI2135
aa(lp4268
Vpin
p4269
aI2136
aa(lp4270
Vsleep
p4271
aI2137
aa(lp4272
Vhospital
p4273
aI2138
aa(lp4274
Vshoot
p4275
aI2139
aa(lp4276
Vceremony
p4277
aI2140
aa(lp4278
Vswaying
p4279
aI2141
aa(lp4280
Vsigning
p4281
aI2142
aa(lp4282
Vfluid
p4283
aI2143
aa(lp4284
Vliquor
p4285
aI2144
aa(lp4286
Vsharpens
p4287
aI2145
aa(lp4288
Vbikinis
p4289
aI2146
aa(lp4290
Vropes
p4291
aI2147
aa(lp4292
Vstenography
p4293
aI2148
aa(lp4294
Vdinner
p4295
aI2149
aa(lp4296
Vportions
p4297
aI2150
aa(lp4298
Voutstretched
p4299
aI2151
aa(lp4300
Vleads
p4301
aI2152
aa(lp4302
Vmelon
p4303
aI2153
aa(lp4304
Vbrother
p4305
aI2154
aa(lp4306
Vdries
p4307
aI2155
aa(lp4308
Vweird
p4309
aI2156
aa(lp4310
Vteased
p4311
aI2157
aa(lp4312
Vgrab
p4313
aI2158
aa(lp4314
Vkamaboko
p4315
aI2159
aa(lp4316
Vfails
p4317
aI2160
aa(lp4318
Vfarmers
p4319
aI2161
aa(lp4320
Vventriloquist
p4321
aI2162
aa(lp4322
Vkill
p4323
aI2163
aa(lp4324
Vfridge
p4325
aI2164
aa(lp4326
Vcompetition
p4327
aI2165
aa(lp4328
Vshirtless
p4329
aI2166
aa(lp4330
Vcordless
p4331
aI2167
aa(lp4332
Vticket
p4333
aI2168
aa(lp4334
Vequations
p4335
aI2169
aa(lp4336
Vwrestler
p4337
aI2170
aa(lp4338
Vcourt
p4339
aI2171
aa(lp4340
Valcohol
p4341
aI2172
aa(lp4342
Vfancy
p4343
aI2173
aa(lp4344
Vexploded
p4345
aI2174
aa(lp4346
Vdug
p4347
aI2175
aa(lp4348
Vplants
p4349
aI2176
aa(lp4350
Vrim
p4351
aI2177
aa(lp4352
Vlower
p4353
aI2178
aa(lp4354
Vbounced
p4355
aI2179
aa(lp4356
Vworkers
p4357
aI2180
aa(lp4358
Vrains
p4359
aI2181
aa(lp4360
Vhelping
p4361
aI2182
aa(lp4362
Vstruggles
p4363
aI2183
aa(lp4364
Vhorizontally
p4365
aI2184
aa(lp4366
Vmovie
p4367
aI2185
aa(lp4368
Vmugs
p4369
aI2186
aa(lp4370
Vclosed
p4371
aI2187
aa(lp4372
Vpackaging
p4373
aI2188
aa(lp4374
Vmike
p4375
aI2189
aa(lp4376
Vpainted
p4377
aI2190
aa(lp4378
Vrooster
p4379
aI2191
aa(lp4380
Vscissor
p4381
aI2192
aa(lp4382
Vkinds
p4383
aI2193
aa(lp4384
Vraining
p4385
aI2194
aa(lp4386
Vfingernails
p4387
aI2195
aa(lp4388
Vherb
p4389
aI2196
aa(lp4390
Vthyme
p4391
aI2197
aa(lp4392
Vmusicians
p4393
aI2198
aa(lp4394
Vshowed
p4395
aI2199
aa(lp4396
Vsoaked
p4397
aI2200
aa(lp4398
Vsinger
p4399
aI2201
aa(lp4400
Veyelids
p4401
aI2202
aa(lp4402
Vlots
p4403
aI2203
aa(lp4404
Vscore
p4405
aI2204
aa(lp4406
Vpits
p4407
aI2205
aa(lp4408
Vfro
p4409
aI2206
aa(lp4410
Vmarched
p4411
aI2207
aa(lp4412
Vtuna
p4413
aI2208
aa(lp4414
Vmoonwalk
p4415
aI2209
aa(lp4416
Vhay
p4417
aI2210
aa(lp4418
Vmarinating
p4419
aI2211
aa(lp4420
Vcreed
p4421
aI2212
aa(lp4422
Vtrampolines
p4423
aI2213
aa(lp4424
Vraised
p4425
aI2214
aa(lp4426
Vson
p4427
aI2215
aa(lp4428
Vlaunching
p4429
aI2216
aa(lp4430
Vmarathon
p4431
aI2217
aa(lp4432
Vskewer
p4433
aI2218
aa(lp4434
Vblasting
p4435
aI2219
aa(lp4436
Vcanvas
p4437
aI2220
aa(lp4438
Vbumps
p4439
aI2221
aa(lp4440
Vweapons
p4441
aI2222
aa(lp4442
Vtears
p4443
aI2223
aa(lp4444
Vvertical
p4445
aI2224
aa(lp4446
Vsupermarket
p4447
aI2225
aa(lp4448
Vstretch
p4449
aI2226
aa(lp4450
Vformed
p4451
aI2227
aa(lp4452
Vspotlight
p4453
aI2228
aa(lp4454
Vshuts
p4455
aI2229
aa(lp4456
Vskier
p4457
aI2230
aa(lp4458
Vmoped
p4459
aI2231
aa(lp4460
Vad
p4461
aI2232
aa(lp4462
Vsmile
p4463
aI2233
aa(lp4464
Vswirling
p4465
aI2234
aa(lp4466
Vindividuals
p4467
aI2235
aa(lp4468
Vsucker
p4469
aI2236
aa(lp4470
Vbends
p4471
aI2237
aa(lp4472
Vbumped
p4473
aI2238
aa(lp4474
Vgold
p4475
aI2239
aa(lp4476
Vblended
p4477
aI2240
aa(lp4478
Vsee
p4479
aI2241
aa(lp4480
Voverboard
p4481
aI2242
aa(lp4482
Vpickup
p4483
aI2243
aa(lp4484
Vraces
p4485
aI2244
aa(lp4486
Vpresses
p4487
aI2245
aa(lp4488
Vfunny
p4489
aI2246
aa(lp4490
Velevated
p4491
aI2247
aa(lp4492
Vchorus
p4493
aI2248
aa(lp4494
Vbounce
p4495
aI2249
aa(lp4496
Vinserting
p4497
aI2250
aa(lp4498
Vgarbage
p4499
aI2251
aa(lp4500
Vstrums
p4501
aI2252
aa(lp4502
Vfighter
p4503
aI2253
aa(lp4504
Vcontinues
p4505
aI2254
aa(lp4506
Vdecorating
p4507
aI2255
aa(lp4508
Vapparatus
p4509
aI2256
aa(lp4510
Vdelivering
p4511
aI2257
aa(lp4512
Vtied
p4513
aI2258
aa(lp4514
Vties
p4515
aI2259
aa(lp4516
Vvise
p4517
aI2260
aa(lp4518
Vhops
p4519
aI2261
aa(lp4520
Vraccoon-like
p4521
aI2262
aa(lp4522
Vframe
p4523
aI2263
aa(lp4524
Vinteracting
p4525
aI2264
aa(lp4526
Vfigures
p4527
aI2265
aa(lp4528
Vbald
p4529
aI2266
aa(lp4530
Vcriss
p4531
aI2267
aa(lp4532
Vmuch
p4533
aI2268
aa(lp4534
Vdelivers
p4535
aI2269
aa(lp4536
Vbooties
p4537
aI2270
aa(lp4538
Vabove
p4539
aI2271
aa(lp4540
Vsimultaneously
p4541
aI2272
aa(lp4542
Vsinks
p4543
aI2273
aa(lp4544
Vangrily
p4545
aI2274
aa(lp4546
Vseparates
p4547
aI2275
aa(lp4548
Vlay
p4549
aI2276
aa(lp4550
Vcollide
p4551
aI2277
aa(lp4552
Vmedicine
p4553
aI2278
aa(lp4554
Vcreates
p4555
aI2279
aa(lp4556
Vduckling
p4557
aI2280
aa(lp4558
Venjoyed
p4559
aI2281
aa(lp4560
Vvoice
p4561
aI2282
aa(lp4562
Vphotographer
p4563
aI2283
aa(lp4564
Vpeed
p4565
aI2284
aa(lp4566
Vpees
p4567
aI2285
aa(lp4568
Vdiner
p4569
aI2286
aa(lp4570
Vreception
p4571
aI2287
aa(lp4572
Vswitches
p4573
aI2288
aa(lp4574
Vupper
p4575
aI2289
aa(lp4576
Vwheelies
p4577
aI2290
aa(lp4578
Vheard
p4579
aI2291
aa(lp4580
Vdiscussion
p4581
aI2292
aa(lp4582
Vfreezer
p4583
aI2293
aa(lp4584
Vsprinting
p4585
aI2294
aa(lp4586
Vsunset
p4587
aI2295
aa(lp4588
Vsport
p4589
aI2296
aa(lp4590
Veddie
p4591
aI2297
aa(lp4592
Vtaken
p4593
aI2298
aa(lp4594
Vracetrack
p4595
aI2299
aa(lp4596
Vflattening
p4597
aI2300
aa(lp4598
Valongside
p4599
aI2301
aa(lp4600
Vflights
p4601
aI2302
aa(lp4602
Vcompeting
p4603
aI2303
aa(lp4604
Vboils
p4605
aI2304
aa(lp4606
Vgloved
p4607
aI2305
aa(lp4608
Vboxers
p4609
aI2306
aa(lp4610
Vgrand
p4611
aI2307
aa(lp4612
Vradiator
p4613
aI2308
aa(lp4614
Vcloud
p4615
aI2309
aa(lp4616
Vmeet
p4617
aI2310
aa(lp4618
Vplayground
p4619
aI2311
aa(lp4620
Vtimer
p4621
aI2312
aa(lp4622
Vmad
p4623
aI2313
aa(lp4624
Vphotograph
p4625
aI2314
aa(lp4626
Vpassionately
p4627
aI2315
aa(lp4628
V(
p4629
aI2316
aa(lp4630
Vpoultry
p4631
aI2317
aa(lp4632
Vi
p4633
aI2318
aa(lp4634
Vobstacles
p4635
aI2319
aa(lp4636
Vwell
p4637
aI2320
aa(lp4638
Vdistant
p4639
aI2321
aa(lp4640
Vmartin
p4641
aI2322
aa(lp4642
Vnightclub
p4643
aI2323
aa(lp4644
Vtongue
p4645
aI2324
aa(lp4646
Vgerbil
p4647
aI2325
aa(lp4648
Vcarriage
p4649
aI2326
aa(lp4650
Vemerges
p4651
aI2327
aa(lp4652
Vjapanese
p4653
aI2328
aa(lp4654
Vscreams
p4655
aI2329
aa(lp4656
Vmo-pad
p4657
aI2330
aa(lp4658
Vtwirled
p4659
aI2331
aa(lp4660
Vathletes
p4661
aI2332
aa(lp4662
Vlucy
p4663
aI2333
aa(lp4664
Vleaned
p4665
aI2334
aa(lp4666
Vspinach
p4667
aI2335
aa(lp4668
Vsomone
p4669
aI2336
aa(lp4670
Vmedical
p4671
aI2337
aa(lp4672
Vsail
p4673
aI2338
aa(lp4674
Vswoops
p4675
aI2339
aa(lp4676
Vtarsier
p4677
aI2340
aa(lp4678
Vpractices
p4679
aI2341
aa(lp4680
Vdear
p4681
aI2342
aa(lp4682
Vslurry
p4683
aI2343
aa(lp4684
Vsuper
p4685
aI2344
aa(lp4686
Vbikers
p4687
aI2345
aa(lp4688
Vcreamy
p4689
aI2346
aa(lp4690
Vviolins
p4691
aI2347
aa(lp4692
Vloaves
p4693
aI2348
aa(lp4694
Vshoes
p4695
aI2349
aa(lp4696
Vleopards
p4697
aI2350
aa(lp4698
Vmonster
p4699
aI2351
aa(lp4700
Vsounds
p4701
aI2352
aa(lp4702
Vbutt
p4703
aI2353
aa(lp4704
Vbrowning
p4705
aI2354
aa(lp4706
Vwinding
p4707
aI2355
aa(lp4708
Vblends
p4709
aI2356
aa(lp4710
Vparent
p4711
aI2357
aa(lp4712
Veventually
p4713
aI2358
aa(lp4714
Vpile
p4715
aI2359
aa(lp4716
Vmom
p4717
aI2360
aa(lp4718
Verase
p4719
aI2361
aa(lp4720
Vshells
p4721
aI2362
aa(lp4722
Varranged
p4723
aI2363
aa(lp4724
Vspicing
p4725
aI2364
aa(lp4726
Vhusky
p4727
aI2365
aa(lp4728
Venjoying
p4729
aI2366
aa(lp4730
Vstood
p4731
aI2367
aa(lp4732
Vdachshund
p4733
aI2368
aa(lp4734
Vwiped
p4735
aI2369
aa(lp4736
Vquesadilla
p4737
aI2370
aa(lp4738
Vrifles
p4739
aI2371
aa(lp4740
Vbacked
p4741
aI2372
aa(lp4742
Vstabs
p4743
aI2373
aa(lp4744
Vrowed
p4745
aI2374
aa(lp4746
Vbreast
p4747
aI2375
aa(lp4748
Vremove
p4749
aI2376
aa(lp4750
Vslips
p4751
aI2377
aa(lp4752
Vkneeding
p4753
aI2378
aa(lp4754
Vpiled
p4755
aI2379
aa(lp4756
Vcurb
p4757
aI2380
aa(lp4758
Vmusician
p4759
aI2381
aa(lp4760
Vmower
p4761
aI2382
aa(lp4762
Vtoasted
p4763
aI2383
aa(lp4764
Ventire
p4765
aI2384
aa(lp4766
Vlime
p4767
aI2385
aa(lp4768
Vche
p4769
aI2386
aa(lp4770
Varranging
p4771
aI2387
aa(lp4772
Vbuildings
p4773
aI2388
aa(lp4774
Vwaters
p4775
aI2389
aa(lp4776
Vtickles
p4777
aI2390
aa(lp4778
Vapproaches
p4779
aI2391
aa(lp4780
Vstiring
p4781
aI2392
aa(lp4782
Vyarn
p4783
aI2393
aa(lp4784
Vunrolling
p4785
aI2394
aa(lp4786
Vtapir
p4787
aI2395
aa(lp4788
Vdeveining
p4789
aI2396
aa(lp4790
Vrotating
p4791
aI2397
aa(lp4792
Vgrabbed
p4793
aI2398
aa(lp4794
Vbean
p4795
aI2399
aa(lp4796
Vorgan
p4797
aI2400
aa(lp4798
Vmows
p4799
aI2401
aa(lp4800
V)
p4801
aI2402
aa(lp4802
Vtumbles
p4803
aI2403
aa(lp4804
Vseats
p4805
aI2404
aa(lp4806
Vworks
p4807
aI2405
aa(lp4808
Vcircus
p4809
aI2406
aa(lp4810
Vbeaten
p4811
aI2407
aa(lp4812
Vcharging
p4813
aI2408
aa(lp4814
Vtoe
p4815
aI2409
aa(lp4816
Vradio
p4817
aI2410
aa(lp4818
Vwedding
p4819
aI2411
aa(lp4820
Vreport
p4821
aI2412
aa(lp4822
Vswept
p4823
aI2413
aa(lp4824
Vfaces
p4825
aI2414
aa(lp4826
Vglides
p4827
aI2415
aa(lp4828
Vforehead
p4829
aI2416
aa(lp4830
Vbasketballs
p4831
aI2417
aa(lp4832
Vcycle
p4833
aI2418
aa(lp4834
Vsponge
p4835
aI2419
aa(lp4836
Vcurry
p4837
aI2420
aa(lp4838
Vyacht
p4839
aI2421
aa(lp4840
Vbackward
p4841
aI2422
aa(lp4842
Vcoach
p4843
aI2423
aa(lp4844
Vlevel
p4845
aI2424
aa(lp4846
Vcorn
p4847
aI2425
aa(lp4848
Vprey
p4849
aI2426
aa(lp4850
Viphone
p4851
aI2427
aa(lp4852
Vperformer
p4853
aI2428
aa(lp4854
Vindividually
p4855
aI2429
aa(lp4856
Vtrunks
p4857
aI2430
aa(lp4858
Vtempura
p4859
aI2431
aa(lp4860
Vmarionette
p4861
aI2432
aa(lp4862
Vsoaring
p4863
aI2433
aa(lp4864
Vseason
p4865
aI2434
aa(lp4866
Vdining
p4867
aI2435
aa(lp4868
Vanimation
p4869
aI2436
aa(lp4870
Vbite-sized
p4871
aI2437
aa(lp4872
Vdirection
p4873
aI2438
aa(lp4874
Vcast
p4875
aI2439
aa(lp4876
Vbuys
p4877
aI2440
aa(lp4878
Vblow
p4879
aI2441
aa(lp4880
Vtower
p4881
aI2442
aa(lp4882
Vmoon
p4883
aI2443
aa(lp4884
Vtrash
p4885
aI2444
aa(lp4886
Vchinese
p4887
aI2445
aa(lp4888
Vdisc
p4889
aI2446
aa(lp4890
Vdisk
p4891
aI2447
aa(lp4892
Vswung
p4893
aI2448
aa(lp4894
Vsautes
p4895
aI2449
aa(lp4896
Vfeed
p4897
aI2450
aa(lp4898
Vstory
p4899
aI2451
aa(lp4900
Vaims
p4901
aI2452
aa(lp4902
Vcleaner
p4903
aI2453
aa(lp4904
Vbending
p4905
aI2454
aa(lp4906
Vwheeling
p4907
aI2455
aa(lp4908
Vwrote
p4909
aI2456
aa(lp4910
Vbarn
p4911
aI2457
aa(lp4912
Vinitially
p4913
aI2458
aa(lp4914
Voutfit
p4915
aI2459
aa(lp4916
Vcheek
p4917
aI2460
aa(lp4918
Vsharpened
p4919
aI2461
aa(lp4920
Vshaped
p4921
aI2462
aa(lp4922
Vshapes
p4923
aI2463
aa(lp4924
Vchin-ups
p4925
aI2464
aa(lp4926
Vorangatan
p4927
aI2465
aa(lp4928
Vraising
p4929
aI2466
aa(lp4930
Vmustard
p4931
aI2467
aa(lp4932
Vbreasts
p4933
aI2468
aa(lp4934
Vvice
p4935
aI2469
aa(lp4936
Vonce
p4937
aI2470
aa(lp4938
Vsteve
p4939
aI2471
aa(lp4940
Vstream
p4941
aI2472
aa(lp4942
Vsix
p4943
aI2473
aa(lp4944
Vtickling
p4945
aI2474
aa(lp4946
Vshallot
p4947
aI2475
aa(lp4948
Vshelf
p4949
aI2476
aa(lp4950
Vafraid
p4951
aI2477
aa(lp4952
Vwords
p4953
aI2478
aa(lp4954
Vcross
p4955
aI2479
aa(lp4956
Vmember
p4957
aI2480
aa(lp4958
Vown
p4959
aI2481
aa(lp4960
Vknelt
p4961
aI2482
aa(lp4962
Vscrapes
p4963
aI2483
aa(lp4964
Vreported
p4965
aI2484
aa(lp4966
Vuntil
p4967
aI2485
aa(lp4968
Vfemales
p4969
aI2486
aa(lp4970
Vhoe
p4971
aI2487
aa(lp4972
Vhamsters
p4973
aI2488
aa(lp4974
Vdoghouse
p4975
aI2489
aa(lp4976
Vmimicking
p4977
aI2490
aa(lp4978
Vseries
p4979
aI2491
aa(lp4980
Vturnip
p4981
aI2492
aa(lp4982
Vrc
p4983
aI2493
aa(lp4984
Vstamping
p4985
aI2494
aa(lp4986
Vspeeds
p4987
aI2495
aa(lp4988
Vreturns
p4989
aI2496
aa(lp4990
Vcrawl
p4991
aI2497
aa(lp4992
Vparamedics
p4993
aI2498
aa(lp4994
Vmetallic
p4995
aI2499
aa(lp4996
Vtouched
p4997
aI2500
aa(lp4998
Vpiggy
p4999
aI2501
aa(lp5000
Vaccident
p5001
aI2502
aa(lp5002
Vcontestants
p5003
aI2503
aa(lp5004
Vstartled
p5005
aI2504
aa(lp5006
Vspin
p5007
aI2505
aa(lp5008
Vtorching
p5009
aI2506
aa(lp5010
Vsnout
p5011
aI2507
aa(lp5012
Vperiphery
p5013
aI2508
aa(lp5014
Vpinches
p5015
aI2509
aa(lp5016
Vwaits
p5017
aI2510
aa(lp5018
Voverhead
p5019
aI2511
aa(lp5020
Vpaprika
p5021
aI2512
aa(lp5022
Vtriangles
p5023
aI2513
aa(lp5024
Vactor
p5025
aI2514
aa(lp5026
Vflood
p5027
aI2515
aa(lp5028
Vdragonfly
p5029
aI2516
aa(lp5030
Valone
p5031
aI2517
aa(lp5032
Vriders
p5033
aI2518
aa(lp5034
Vfrogs
p5035
aI2519
aa(lp5036
Vhides
p5037
aI2520
aa(lp5038
Vgarlands
p5039
aI2521
aa(lp5040
Vbursting
p5041
aI2522
aa(lp5042
Vbits
p5043
aI2523
aa(lp5044
Vtasted
p5045
aI2524
aa(lp5046
Vzoo
p5047
aI2525
aa(lp5048
Vnote
p5049
aI2526
aa(lp5050
Vmicrowaves
p5051
aI2527
aa(lp5052
Vbright
p5053
aI2528
aa(lp5054
Vpoops
p5055
aI2529
aa(lp5056
Vedges
p5057
aI2530
aa(lp5058
Vmohawk
p5059
aI2531
aa(lp5060
Vpecks
p5061
aI2532
aa(lp5062
Vsteamed
p5063
aI2533
aa(lp5064
Vmandolin
p5065
aI2534
aa(lp5066
Vbongos
p5067
aI2535
aa(lp5068
Vtuba
p5069
aI2536
aa(lp5070
Vwade
p5071
aI2537
aa(lp5072
Vwalken
p5073
aI2538
aa(lp5074
Veyedropper
p5075
aI2539
aa(lp5076
Vte
p5077
aI2540
aa(lp5078
Vrichard
p5079
aI2541
aa(lp5080
Vsection
p5081
aI2542
aa(lp5082
Vpoodle
p5083
aI2543
aa(lp5084
Vmore
p5085
aI2544
aa(lp5086
Vteen
p5087
aI2545
aa(lp5088
Vcoyote
p5089
aI2546
aa(lp5090
Vkeeping
p5091
aI2547
aa(lp5092
Vtwisting
p5093
aI2548
aa(lp5094
Vbroadcasting
p5095
aI2549
aa(lp5096
Vfound
p5097
aI2550
aa(lp5098
Voperation
p5099
aI2551
aa(lp5100
Vmisses
p5101
aI2552
aa(lp5102
Vdrifting
p5103
aI2553
aa(lp5104
Vcorrugated
p5105
aI2554
aa(lp5106
Vtomatos
p5107
aI2555
aa(lp5108
Vinterviewed
p5109
aI2556
aa(lp5110
Vblond
p5111
aI2557
aa(lp5112
Vcruises
p5113
aI2558
aa(lp5114
Vburrata
p5115
aI2559
aa(lp5116
Vapproaching
p5117
aI2560
aa(lp5118
Vjerboa
p5119
aI2561
aa(lp5120
Vtouch
p5121
aI2562
aa(lp5122
Vpremises
p5123
aI2563
aa(lp5124
Vpatty
p5125
aI2564
aa(lp5126
Vwheeled
p5127
aI2565
aa(lp5128
Vpound
p5129
aI2566
aa(lp5130
Vcigar
p5131
aI2567
aa(lp5132
Vgoblet
p5133
aI2568
aa(lp5134
Vemergency
p5135
aI2569
aa(lp5136
Vpouncing
p5137
aI2570
aa(lp5138
Vspring
p5139
aI2571
aa(lp5140
Vcurious
p5141
aI2572
aa(lp5142
Vjewish
p5143
aI2573
aa(lp5144
Vrelaxes
p5145
aI2574
aa(lp5146
Vyelled
p5147
aI2575
aa(lp5148
Vpepperonis
p5149
aI2576
aa(lp5150
Vactors
p5151
aI2577
aa(lp5152
Vsplashing
p5153
aI2578
aa(lp5154
Vmanipulates
p5155
aI2579
aa(lp5156
Vtry
p5157
aI2580
aa(lp5158
Vlee
p5159
aI2581
aa(lp5160
Vvinegar
p5161
aI2582
aa(lp5162
Vopinion
p5163
aI2583
aa(lp5164
Vwhipping
p5165
aI2584
aa(lp5166
Vcustomer
p5167
aI2585
aa(lp5168
Vchristopher
p5169
aI2586
aa(lp5170
V'
p5171
aI2587
aa(lp5172
Vshut
p5173
aI2588
aa(lp5174
Vowner
p5175
aI2589
aa(lp5176
Vbedroom
p5177
aI2590
aa(lp5178
Vrough
p5179
aI2591
aa(lp5180
Vbuttons
p5181
aI2592
aa(lp5182
Vtape
p5183
aI2593
aa(lp5184
Vlistened
p5185
aI2594
aa(lp5186
Vhandstand
p5187
aI2595
aa(lp5188
Vfielding
p5189
aI2596
aa(lp5190
Vcrack
p5191
aI2597
aa(lp5192
Vjalapeno
p5193
aI2598
aa(lp5194
Vbasin
p5195
aI2599
aa(lp5196
Vziploc
p5197
aI2600
aa(lp5198
Vlift
p5199
aI2601
aa(lp5200
Vsearched
p5201
aI2602
aa(lp5202
Vurinating
p5203
aI2603
aa(lp5204
Vbra
p5205
aI2604
aa(lp5206
Vgloss
p5207
aI2605
aa(lp5208
Vscary
p5209
aI2606
aa(lp5210
Vbubbles
p5211
aI2607
aa(lp5212
Vbreak
p5213
aI2608
aa(lp5214
Vkneels
p5215
aI2609
aa(lp5216
Vswatting
p5217
aI2610
aa(lp5218
Vmanner
p5219
aI2611
aa(lp5220
Vmaterials
p5221
aI2612
aa(lp5222
Vlong-eared
p5223
aI2613
aa(lp5224
Vsleepy
p5225
aI2614
aa(lp5226
Vgentleman
p5227
aI2615
aa(lp5228
Vreceives
p5229
aI2616
aa(lp5230
Vrelaxing
p5231
aI2617
aa(lp5232
Voxiclean
p5233
aI2618
aa(lp5234
Vdemonstration
p5235
aI2619
aa(lp5236
Vboxer
p5237
aI2620
aa(lp5238
Vfloat
p5239
aI2621
aa(lp5240
Vsnowy
p5241
aI2622
aa(lp5242
Vveterinarian
p5243
aI2623
aa(lp5244
Vtest
p5245
aI2624
aa(lp5246
Vscored
p5247
aI2625
aa(lp5248
Vjuices
p5249
aI2626
aa(lp5250
Vjogged
p5251
aI2627
aa(lp5252
Vaggressively
p5253
aI2628
aa(lp5254
Vsloths
p5255
aI2629
aa(lp5256
Vflames
p5257
aI2630
aa(lp5258
Vbangs
p5259
aI2631
aa(lp5260
Vsnowboard
p5261
aI2632
aa(lp5262
Ventrance
p5263
aI2633
aa(lp5264
Vcap
p5265
aI2634
aa(lp5266
Vproduct
p5267
aI2635
aa(lp5268
Vdisplayed
p5269
aI2636
aa(lp5270
Vstill
p5271
aI2637
aa(lp5272
Vtending
p5273
aI2638
aa(lp5274
Vrooftop
p5275
aI2639
aa(lp5276
Vgalloping
p5277
aI2640
aa(lp5278
Vdrop
p5279
aI2641
aa(lp5280
Vsize
p5281
aI2642
aa(lp5282
Vthan
p5283
aI2643
aa(lp5284
Vfruits
p5285
aI2644
aa(lp5286
Vhappy
p5287
aI2645
aa(lp5288
Valgebraic
p5289
aI2646
aa(lp5290
Vsauteed
p5291
aI2647
aa(lp5292
Vhurts
p5293
aI2648
aa(lp5294
Vcycling
p5295
aI2649
aa(lp5296
Vone-armed
p5297
aI2650
aa(lp5298
Vfigurines
p5299
aI2651
aa(lp5300
Vstruck
p5301
aI2652
aa(lp5302
Vswim
p5303
aI2653
aa(lp5304
Vbarbells
p5305
aI2654
aa(lp5306
Vconversing
p5307
aI2655
aa(lp5308
Vvegtables
p5309
aI2656
aa(lp5310
Vstrainer
p5311
aI2657
aa(lp5312
Vprepare
p5313
aI2658
aa(lp5314
Vomelet
p5315
aI2659
aa(lp5316
Vbeyond
p5317
aI2660
aa(lp5318
Vpupply
p5319
aI2661
aa(lp5320
Vcomputerized
p5321
aI2662
aa(lp5322
Vbullion
p5323
aI2663
aa(lp5324
Vsafety
p5325
aI2664
aa(lp5326
Vfamily
p5327
aI2665
aa(lp5328
Vcontains
p5329
aI2666
aa(lp5330
Vscallions
p5331
aI2667
aa(lp5332
Vhamburgers
p5333
aI2668
aa(lp5334
Vclarinet
p5335
aI2669
aa(lp5336
Vcarpeted
p5337
aI2670
aa(lp5338
Vsolving
p5339
aI2671
aa(lp5340
Vterrain
p5341
aI2672
aa(lp5342
Vdesperately
p5343
aI2673
aa(lp5344
Vstopped
p5345
aI2674
aa(lp5346
Vbass
p5347
aI2675
aa(lp5348
Vpug
p5349
aI2676
aa(lp5350
Vpup
p5351
aI2677
aa(lp5352
Vsignaling
p5353
aI2678
aa(lp5354
Vbattering
p5355
aI2679
aa(lp5356
Vrandomly
p5357
aI2680
aa(lp5358
Vflicked
p5359
aI2681
aa(lp5360
Vimitating
p5361
aI2682
aa(lp5362
Vgloves
p5363
aI2683
aa(lp5364
Vmissing
p5365
aI2684
aa(lp5366
Vspray
p5367
aI2685
aa(lp5368
Vjeff
p5369
aI2686
aa(lp5370
Voverweight
p5371
aI2687
aa(lp5372
Vconsistency
p5373
aI2688
aa(lp5374
Vremaining
p5375
aI2689
aa(lp5376
Vmarch
p5377
aI2690
aa(lp5378
Vminced
p5379
aI2691
aa(lp5380
Vstew
p5381
aI2692
aa(lp5382
Vhalfpipe
p5383
aI2693
aa(lp5384
Vkickboxing
p5385
aI2694
aa(lp5386
Vdepartment
p5387
aI2695
aa(lp5388
Vdraw
p5389
aI2696
aa(lp5390
Vyoutube
p5391
aI2697
aa(lp5392
Vbarbecue
p5393
aI2698
aa(lp5394
Vsnowboards
p5395
aI2699
aa(lp5396
Vpoles
p5397
aI2700
aa(lp5398
Vshoreline
p5399
aI2701
aa(lp5400
Vstance
p5401
aI2702
aa(lp5402
Vwhacks
p5403
aI2703
aa(lp5404
Vcheeks
p5405
aI2704
aa(lp5406
V1/2
p5407
aI2705
aa(lp5408
Vstarted
p5409
aI2706
aa(lp5410
Vtriangle
p5411
aI2707
aa(lp5412
Velliptical
p5413
aI2708
aa(lp5414
Vskated
p5415
aI2709
aa(lp5416
Vchunk
p5417
aI2710
aa(lp5418
Vemptying
p5419
aI2711
aa(lp5420
Vcellphone
p5421
aI2712
aa(lp5422
Vindoor
p5423
aI2713
aa(lp5424
Vskate-board
p5425
aI2714
aa(lp5426
Vfuel
p5427
aI2715
aa(lp5428
Vsurfs
p5429
aI2716
aa(lp5430
Vgray
p5431
aI2717
aa(lp5432
Vdriveway
p5433
aI2718
aa(lp5434
Vwyclef
p5435
aI2719
aa(lp5436
Vyam
p5437
aI2720
aa(lp5438
Verases
p5439
aI2721
aa(lp5440
Vtabletop
p5441
aI2722
aa(lp5442
Vrafter
p5443
aI2723
aa(lp5444
Vcrushes
p5445
aI2724
aa(lp5446
Vgrinding
p5447
aI2725
aa(lp5448
Vtadpole
p5449
aI2726
aa(lp5450
Vjournal
p5451
aI2727
aa(lp5452
Vpastries
p5453
aI2728
aa(lp5454
Vinner
p5455
aI2729
aa(lp5456
Vstar
p5457
aI2730
aa(lp5458
Vfriends
p5459
aI2731
aa(lp5460
Vsolution
p5461
aI2732
aa(lp5462
Vweirdly
p5463
aI2733
aa(lp5464
Vslicer
p5465
aI2734
aa(lp5466
Vgive
p5467
aI2735
aa(lp5468
Vthird
p5469
aI2736
aa(lp5470
Vpianos
p5471
aI2737
aa(lp5472
Vextract
p5473
aI2738
aa(lp5474
Vloud
p5475
aI2739
aa(lp5476
Vhydrant
p5477
aI2740
aa(lp5478
Vgym
p5479
aI2741
aa(lp5480
Vmashed
p5481
aI2742
aa(lp5482
Vcelery
p5483
aI2743
aa(lp5484
Vtiles
p5485
aI2744
aa(lp5486
Vpatted
p5487
aI2745
aa(lp5488
Vears
p5489
aI2746
aa(lp5490
Vfluffy
p5491
aI2747
aa(lp5492
Vlotion
p5493
aI2748
aa(lp5494
Vseven
p5495
aI2749
aa(lp5496
Vif
p5497
aI2750
aa(lp5498
Vfoot-ball
p5499
aI2751
aa(lp5500
Vpolaroid
p5501
aI2752
aa(lp5502
Vwagged
p5503
aI2753
aa(lp5504
Vjust
p5505
aI2754
aa(lp5506
Vfighters
p5507
aI2755
aa(lp5508
Vchives
p5509
aI2756
aa(lp5510
Varguing
p5511
aI2757
aa(lp5512
Vform
p5513
aI2758
aa(lp5514
Vdiaper
p5515
aI2759
aa(lp5516
Vsticky
p5517
aI2760
aa(lp5518
Vclings
p5519
aI2761
aa(lp5520
Vskis
p5521
aI2762
aa(lp5522
Veye-shadow
p5523
aI2763
aa(lp5524
Vfrosting
p5525
aI2764
aa(lp5526
Vbob
p5527
aI2765
aa(lp5528
Vcarnival
p5529
aI2766
aa(lp5530
Vclung
p5531
aI2767
aa(lp5532
Vshocked
p5533
aI2768
aa(lp5534
Vshop
p5535
aI2769
aa(lp5536
Vfrolicking
p5537
aI2770
aa(lp5538
Vrestroom
p5539
aI2771
aa(lp5540
Vstretches
p5541
aI2772
aa(lp5542
Vstretched
p5543
aI2773
aa(lp5544
Vbmx
p5545
aI2774
aa(lp5546
Vsound
p5547
aI2775
aa(lp5548
Vspoonful
p5549
aI2776
aa(lp5550
Vmoney
p5551
aI2777
aa(lp5552
Vvending
p5553
aI2778
aa(lp5554
Vfrantically
p5555
aI2779
aa(lp5556
Vnewscaster
p5557
aI2780
aa(lp5558
Vinsect
p5559
aI2781
aa(lp5560
Vfile
p5561
aI2782
aa(lp5562
Vpersonnel
p5563
aI2783
aa(lp5564
Vrollerblading
p5565
aI2784
aa(lp5566
Vstudents
p5567
aI2785
aa(lp5568
Vdecorated
p5569
aI2786
aa(lp5570
Vsneeze
p5571
aI2787
aa(lp5572
Vhitchhiker
p5573
aI2788
aa(lp5574
Vsucks
p5575
aI2789
aa(lp5576
Vinfant
p5577
aI2790
aa(lp5578
Vchopper
p5579
aI2791
aa(lp5580
Vpaint
p5581
aI2792
aa(lp5582
Vleash
p5583
aI2793
aa(lp5584
Vaged
p5585
aI2794
aa(lp5586
Vrafters
p5587
aI2795
aa(lp5588
Vgiggling
p5589
aI2796
aa(lp5590
Vdrifts
p5591
aI2797
aa(lp5592
Vhillside
p5593
aI2798
aa(lp5594
Vfloats
p5595
aI2799
aa(lp5596
Vsparring
p5597
aI2800
aa(lp5598
Vliguid
p5599
aI2801
aa(lp5600
Vcalender
p5601
aI2802
aa(lp5602
Vhorse-drawn
p5603
aI2803
aa(lp5604
Vmarrying
p5605
aI2804
aa(lp5606
Vwalrus
p5607
aI2805
aa(lp5608
Vgoods
p5609
aI2806
aa(lp5610
Vhard-boiled
p5611
aI2807
aa(lp5612
Vopponent
p5613
aI2808
aa(lp5614
Vmurphy
p5615
aI2809
aa(lp5616
Vunwrapping
p5617
aI2810
aa(lp5618
Vstagecoach
p5619
aI2811
aa(lp5620
Vbubblegum
p5621
aI2812
aa(lp5622
Vlens
p5623
aI2813
aa(lp5624
Vstrolled
p5625
aI2814
aa(lp5626
Vmowed
p5627
aI2815
aa(lp5628
Vshock
p5629
aI2816
aa(lp5630
Vbaskets
p5631
aI2817
aa(lp5632
Vnoises
p5633
aI2818
aa(lp5634
Vonlookers
p5635
aI2819
aa(lp5636
Vtickled
p5637
aI2820
aa(lp5638
Vgazing
p5639
aI2821
aa(lp5640
Vlecture
p5641
aI2822
aa(lp5642
Vretriever
p5643
aI2823
aa(lp5644
Vhurdle
p5645
aI2824
aa(lp5646
Vcompletes
p5647
aI2825
aa(lp5648
Vapparently
p5649
aI2826
aa(lp5650
Vsupported
p5651
aI2827
aa(lp5652
Vareas
p5653
aI2828
aa(lp5654
Vfixed
p5655
aI2829
aa(lp5656
Vcauliflower
p5657
aI2830
aa(lp5658
Vboulders
p5659
aI2831
aa(lp5660
Vperplexed
p5661
aI2832
aa(lp5662
Vhelped
p5663
aI2833
aa(lp5664
Vtumbling
p5665
aI2834
aa(lp5666
Vhose
p5667
aI2835
aa(lp5668
Vzooms
p5669
aI2836
aa(lp5670
Vcoke
p5671
aI2837
aa(lp5672
Vdresses
p5673
aI2838
aa(lp5674
Vhitch
p5675
aI2839
aa(lp5676
Vjack
p5677
aI2840
aa(lp5678
Vtweezers
p5679
aI2841
aa(lp5680
Vpats
p5681
aI2842
aa(lp5682
Vbeck
p5683
aI2843
aa(lp5684
Vchanges
p5685
aI2844
aa(lp5686
Vvisible
p5687
aI2845
aa(lp5688
Vspike
p5689
aI2846
aa(lp5690
Vtissue
p5691
aI2847
aa(lp5692
Vshook
p5693
aI2848
aa(lp5694
Vdrummed
p5695
aI2849
aa(lp5696
Vdrummer
p5697
aI2850
aa(lp5698
Vmess
p5699
aI2851
aa(lp5700
Vsnarling
p5701
aI2852
aa(lp5702
Vdaredevil
p5703
aI2853
aa(lp5704
Valoud
p5705
aI2854
aa(lp5706
Vcombining
p5707
aI2855
aa(lp5708
Vgrasses
p5709
aI2856
aa(lp5710
Vdays
p5711
aI2857
aa(lp5712
Vbait
p5713
aI2858
aa(lp5714
Vbeen
p5715
aI2859
aa(lp5716
Vrhythmically
p5717
aI2860
aa(lp5718
Vpharmacy
p5719
aI2861
aa(lp5720
Vcore
p5721
aI2862
aa(lp5722
Vsneezing
p5723
aI2863
aa(lp5724
Vshakira
p5725
aI2864
aa(lp5726
Vno
p5727
aI2865
aa(lp5728
Vpapers
p5729
aI2866
aa(lp5730
Vcool
p5731
aI2867
aa(lp5732
Vhandles
p5733
aI2868
aa(lp5734
Vfrothy
p5735
aI2869
aa(lp5736
Vsoccar
p5737
aI2870
aa(lp5738
Vgarlics
p5739
aI2871
aa(lp5740
Vtorch
p5741
aI2872
aa(lp5742
Vexploring
p5743
aI2873
aa(lp5744
Vcumin
p5745
aI2874
aa(lp5746
Vclowns
p5747
aI2875
aa(lp5748
Vspoons
p5749
aI2876
aa(lp5750
Vcome
p5751
aI2877
aa(lp5752
Vpoll
p5753
aI2878
aa(lp5754
Vteammate
p5755
aI2879
aa(lp5756
Vpilot
p5757
aI2880
aa(lp5758
Vmount
p5759
aI2881
aa(lp5760
Vgood
p5761
aI2882
aa(lp5762
Vomelette
p5763
aI2883
aa(lp5764
Vstyles
p5765
aI2884
aa(lp5766
Vcowboys
p5767
aI2885
aa(lp5768
Vstumbles
p5769
aI2886
aa(lp5770
Vpaddy
p5771
aI2887
aa(lp5772
Vcurvy
p5773
aI2888
aa(lp5774
Vparmesan
p5775
aI2889
aa(lp5776
Vteh
p5777
aI2890
aa(lp5778
Vversion
p5779
aI2891
aa(lp5780
Vminiature
p5781
aI2892
aa(lp5782
Vmilkshake
p5783
aI2893
aa(lp5784
Vsticking
p5785
aI2894
aa(lp5786
Vdonuts
p5787
aI2895
aa(lp5788
Vfloyd
p5789
aI2896
aa(lp5790
Vstethoscope
p5791
aI2897
aa(lp5792
Vexplains
p5793
aI2898
aa(lp5794
Vbeyonce
p5795
aI2899
aa(lp5796
Vracoons
p5797
aI2900
aa(lp5798
Vpoliceman
p5799
aI2901
aa(lp5800
Vbraided
p5801
aI2902
aa(lp5802
Vinteract
p5803
aI2903
aa(lp5804
Vphotographing
p5805
aI2904
aa(lp5806
Vdouble
p5807
aI2905
aa(lp5808
Vmeasures
p5809
aI2906
aa(lp5810
Vreach
p5811
aI2907
aa(lp5812
Vart
p5813
aI2908
aa(lp5814
Vrecording
p5815
aI2909
aa(lp5816
Vvillage
p5817
aI2910
aa(lp5818
Vleans
p5819
aI2911
aa(lp5820
Vcheer
p5821
aI2912
aa(lp5822
Vdoberman
p5823
aI2913
aa(lp5824
Vcustomers
p5825
aI2914
aa(lp5826
Vtends
p5827
aI2915
aa(lp5828
Vperpendicular
p5829
aI2916
aa(lp5830
Vrally
p5831
aI2917
aa(lp5832
Vswats
p5833
aI2918
aa(lp5834
Vwinds
p5835
aI2919
aa(lp5836
Vcyclist
p5837
aI2920
aa(lp5838
Vgere
p5839
aI2921
aa(lp5840
Vtaco
p5841
aI2922
aa(lp5842
Vmaterial
p5843
aI2923
aa(lp5844
Vutensil
p5845
aI2924
aa(lp5846
Vclip
p5847
aI2925
aa(lp5848
Vcentre
p5849
aI2926
aa(lp5850
Vview
p5851
aI2927
aa(lp5852
Vunison
p5853
aI2928
aa(lp5854
Voutruns
p5855
aI2929
aa(lp5856
Vbbq
p5857
aI2930
aa(lp5858
Vunpeeled
p5859
aI2931
aa(lp5860
Veyelashes
p5861
aI2932
aa(lp5862
Vinch
p5863
aI2933
aa(lp5864
Vwhale
p5865
aI2934
aa(lp5866
Vbanging
p5867
aI2935
aa(lp5868
Vcarrie
p5869
aI2936
aa(lp5870
Vcried
p5871
aI2937
aa(lp5872
Vpanther
p5873
aI2938
aa(lp5874
Vscared
p5875
aI2939
aa(lp5876
Vdetergent
p5877
aI2940
aa(lp5878
Vdemonstrate
p5879
aI2941
aa(lp5880
Vlory
p5881
aI2942
aa(lp5882
Vcrossbar
p5883
aI2943
aa(lp5884
Vsinking
p5885
aI2944
aa(lp5886
Vfigs
p5887
aI2945
aa(lp5888
Vmaneuver
p5889
aI2946
aa(lp5890
Vtires
p5891
aI2947
aa(lp5892
Vpawed
p5893
aI2948
aa(lp5894
Vmilitary
p5895
aI2949
aa(lp5896
Vexplained
p5897
aI2950
aa(lp5898
Vbrings
p5899
aI2951
aa(lp5900
Vhold
p5901
aI2952
aa(lp5902
Vplunges
p5903
aI2953
aa(lp5904
Vwand
p5905
aI2954
aa(lp5906
Vsippy
p5907
aI2955
aa(lp5908
Vdiagonally
p5909
aI2956
aa(lp5910
Vfit
p5911
aI2957
aa(lp5912
Vhidden
p5913
aI2958
aa(lp5914
Vcrops
p5915
aI2959
aa(lp5916
Vwobbling
p5917
aI2960
aa(lp5918
Vcausing
p5919
aI2961
aa(lp5920
Vamusing
p5921
aI2962
aa(lp5922
Vdoors
p5923
aI2963
aa(lp5924
Vpaintbrush
p5925
aI2964
aa(lp5926
Vcamp
p5927
aI2965
aa(lp5928
Vsaying
p5929
aI2966
aa(lp5930
Vboogie
p5931
aI2967
aa(lp5932
Vreclines
p5933
aI2968
aa(lp5934
Vbusy
p5935
aI2969
aa(lp5936
Vheartily
p5937
aI2970
aa(lp5938
Vhoeing
p5939
aI2971
aa(lp5940
Vpocket
p5941
aI2972
aa(lp5942
Vpads
p5943
aI2973
aa(lp5944
Vsmelled
p5945
aI2974
aa(lp5946
Vcountry
p5947
aI2975
aa(lp5948
Vheating
p5949
aI2976
aa(lp5950
Vwatercraft
p5951
aI2977
aa(lp5952
Vstartles
p5953
aI2978
aa(lp5954
Vbilling
p5955
aI2979
aa(lp5956
Vupside-down
p5957
aI2980
aa(lp5958
Vstadium
p5959
aI2981
aa(lp5960
Vspit
p5961
aI2982
aa(lp5962
Vtzu
p5963
aI2983
aa(lp5964
Vpesquet
p5965
aI2984
aa(lp5966
Vmarches
p5967
aI2985
aa(lp5968
Vburgers
p5969
aI2986
aa(lp5970
Vmassaging
p5971
aI2987
aa(lp5972
Venters
p5973
aI2988
aa(lp5974
Vposed
p5975
aI2989
aa(lp5976
Vpossibly
p5977
aI2990
aa(lp5978
Vgameboy
p5979
aI2991
aa(lp5980
Voccurring
p5981
aI2992
aa(lp5982
Vforepaw
p5983
aI2993
aa(lp5984
Vvegtable
p5985
aI2994
aa(lp5986
Vring-like
p5987
aI2995
aa(lp5988
Vfog
p5989
aI2996
aa(lp5990
Vgrooms
p5991
aI2997
aa(lp5992
Vpalms
p5993
aI2998
aa(lp5994
Vmodels
p5995
aI2999
aa(lp5996
Vfastened
p5997
aI3000
aa(lp5998
Vaerobic
p5999
aI3001
aa(lp6000
Vchilds
p6001
aI3002
aa(lp6002
Vbicycles
p6003
aI3003
aa(lp6004
Vgallops
p6005
aI3004
aa(lp6006
Vsubway
p6007
aI3005
aa(lp6008
Vlistens
p6009
aI3006
aa(lp6010
Vscoots
p6011
aI3007
aa(lp6012
Vveins
p6013
aI3008
aa(lp6014
Vexploding
p6015
aI3009
aa(lp6016
Vformula
p6017
aI3010
aa(lp6018
Vbumpy
p6019
aI3011
aa(lp6020
Vsilhouetted
p6021
aI3012
aa(lp6022
Vbackside
p6023
aI3013
aa(lp6024
V2
p6025
aI3014
aa(lp6026
Vpadding
p6027
aI3015
aa(lp6028
Valley
p6029
aI3016
aa(lp6030
Vsay
p6031
aI3017
aa(lp6032
Vsax
p6033
aI3018
aa(lp6034
Vaside
p6035
aI3019
aa(lp6036
Vhanding
p6037
aI3020
aa(lp6038
Vprinted
p6039
aI3021
aa(lp6040
Voperate
p6041
aI3022
aa(lp6042
Vbackdrop
p6043
aI3023
aa(lp6044
Vmolds
p6045
aI3024
aa(lp6046
Vspare
p6047
aI3025
aa(lp6048
Vmenacing
p6049
aI3026
aa(lp6050
Vgrooming
p6051
aI3027
aa(lp6052
Vtrimmed
p6053
aI3028
aa(lp6054
Vcombines
p6055
aI3029
aa(lp6056
Vrecyclables
p6057
aI3030
aa(lp6058
Vlanes
p6059
aI3031
aa(lp6060
Vfelling
p6061
aI3032
aa(lp6062
Vtribal
p6063
aI3033
aa(lp6064
Vcanoes
p6065
aI3034
aa(lp6066
Vbrow
p6067
aI3035
aa(lp6068
Vengaged
p6069
aI3036
aa(lp6070
Vpacing
p6071
aI3037
aa(lp6072
Vneighborhood
p6073
aI3038
aa(lp6074
Vrest
p6075
aI3039
aa(lp6076
Vpersonals
p6077
aI3040
aa(lp6078
Vbarbecued
p6079
aI3041
aa(lp6080
Vcilantro
p6081
aI3042
aa(lp6082
Vtraffic
p6083
aI3043
aa(lp6084
Vmanas
p6085
aI3044
aa(lp6086
Vstationary
p6087
aI3045
aa(lp6088
Vpickles
p6089
aI3046
aa(lp6090
Vexit
p6091
aI3047
aa(lp6092
Vhen
p6093
aI3048
aa(lp6094
Vgliding
p6095
aI3049
aa(lp6096
Vthumps
p6097
aI3050
aa(lp6098
Vtorso
p6099
aI3051
aa(lp6100
Vpulp
p6101
aI3052
aa(lp6102
Vstraightens
p6103
aI3053
aa(lp6104
Vmask
p6105
aI3054
aa(lp6106
Vmimic
p6107
aI3055
aa(lp6108
Vmotocross
p6109
aI3056
aa(lp6110
Vceramic
p6111
aI3057
aa(lp6112
Vcauses
p6113
aI3058
aa(lp6114
Vpaying
p6115
aI3059
aa(lp6116
Vfloated
p6117
aI3060
aa(lp6118
Vcable
p6119
aI3061
aa(lp6120
Vfashion
p6121
aI3062
aa(lp6122
Vsync
p6123
aI3063
aa(lp6124
Vpass
p6125
aI3064
aa(lp6126
Vnurse
p6127
aI3065
aa(lp6128
Vshops
p6129
aI3066
aa(lp6130
Vaction
p6131
aI3067
aa(lp6132
Vstrolling
p6133
aI3068
aa(lp6134
Vbatsman
p6135
aI3069
aa(lp6136
Vmall
p6137
aI3070
aa(lp6138
Vstates
p6139
aI3071
aa(lp6140
Vbrowns
p6141
aI3072
aa(lp6142
Vwaved
p6143
aI3073
aa(lp6144
Vcountryside
p6145
aI3074
aa(lp6146
Vappealed
p6147
aI3075
aa(lp6148
Vdieing
p6149
aI3076
aa(lp6150
Vreally
p6151
aI3077
aa(lp6152
Vcockpit
p6153
aI3078
aa(lp6154
Vsargent
p6155
aI3079
aa(lp6156
Vantagonizes
p6157
aI3080
aa(lp6158
Vself
p6159
aI3081
aa(lp6160
Vdepartmental
p6161
aI3082
aa(lp6162
Vbeams
p6163
aI3083
aa(lp6164
Vclosely
p6165
aI3084
aa(lp6166
Vbarely
p6167
aI3085
aa(lp6168
Vload
p6169
aI3086
aa(lp6170
Vhollow
p6171
aI3087
aa(lp6172
Vbelt
p6173
aI3088
aa(lp6174
Vcaged
p6175
aI3089
aa(lp6176
Vleaning
p6177
aI3090
aa(lp6178
Vcages
p6179
aI3091
aa(lp6180
Vwaterslide
p6181
aI3092
aa(lp6182
Vviewing
p6183
aI3093
aa(lp6184
Vcanned
p6185
aI3094
aa(lp6186
Vforrest
p6187
aI3095
aa(lp6188
Vdrizzles
p6189
aI3096
aa(lp6190
Vsomoene
p6191
aI3097
aa(lp6192
Vemanating
p6193
aI3098
aa(lp6194
Vstylist
p6195
aI3099
aa(lp6196
Vbouncy
p6197
aI3100
aa(lp6198
Voiling
p6199
aI3101
aa(lp6200
Vbridesmaids
p6201
aI3102
aa(lp6202
Vbutters
p6203
aI3103
aa(lp6204
Vun
p6205
aI3104
aa(lp6206
Vchat
p6207
aI3105
aa(lp6208
Vtarp
p6209
aI3106
aa(lp6210
Vmelts
p6211
aI3107
aa(lp6212
Vweatherman
p6213
aI3108
aa(lp6214
Vpestering
p6215
aI3109
aa(lp6216
Vsphagetti
p6217
aI3110
aa(lp6218
Vslabs
p6219
aI3111
aa(lp6220
Vled
p6221
aI3112
aa(lp6222
Vsquirming
p6223
aI3113
aa(lp6224
Vbobbing
p6225
aI3114
aa(lp6226
Vbeavers
p6227
aI3115
aa(lp6228
Vflours
p6229
aI3116
aa(lp6230
Vbend
p6231
aI3117
aa(lp6232
Vswishes
p6233
aI3118
aa(lp6234
Vcontraption
p6235
aI3119
aa(lp6236
Vhawk
p6237
aI3120
aa(lp6238
Vantelope
p6239
aI3121
aa(lp6240
Vsneezed
p6241
aI3122
aa(lp6242
Vaccompanied
p6243
aI3123
aa(lp6244
Vwander
p6245
aI3124
aa(lp6246
Vdough-like
p6247
aI3125
aa(lp6248
Vfrowns
p6249
aI3126
aa(lp6250
Vban
p6251
aI3127
aa(lp6252
Vgraze
p6253
aI3128
aa(lp6254
Vblown
p6255
aI3129
aa(lp6256
Vstraining
p6257
aI3130
aa(lp6258
Vprank
p6259
aI3131
aa(lp6260
Vspaceship
p6261
aI3132
aa(lp6262
Vlow
p6263
aI3133
aa(lp6264
Vamongst
p6265
aI3134
aa(lp6266
Vsocializing
p6267
aI3135
aa(lp6268
Vignited
p6269
aI3136
aa(lp6270
Vmechanical
p6271
aI3137
aa(lp6272
Vwounded
p6273
aI3138
aa(lp6274
Vtaps
p6275
aI3139
aa(lp6276
Vpinhead
p6277
aI3140
aa(lp6278
Vshaping
p6279
aI3141
aa(lp6280
Vflopped
p6281
aI3142
aa(lp6282
Vsome-one
p6283
aI3143
aa(lp6284
Vsuperhero
p6285
aI3144
aa(lp6286
Vdrug
p6287
aI3145
aa(lp6288
Vpounces
p6289
aI3146
aa(lp6290
Vlectern
p6291
aI3147
aa(lp6292
Vroasting
p6293
aI3148
aa(lp6294
Vhangman
p6295
aI3149
aa(lp6296
Vfuji
p6297
aI3150
aa(lp6298
Vsleds
p6299
aI3151
aa(lp6300
Vsketching
p6301
aI3152
aa(lp6302
Vscreamed
p6303
aI3153
aa(lp6304
Verect
p6305
aI3154
aa(lp6306
Vcradling
p6307
aI3155
aa(lp6308
Vrhythmic
p6309
aI3156
aa(lp6310
Vsmooth
p6311
aI3157
aa(lp6312
Vrubble
p6313
aI3158
aa(lp6314
Vmarley
p6315
aI3159
aa(lp6316
Vgoalkeeper
p6317
aI3160
aa(lp6318
Vghost
p6319
aI3161
aa(lp6320
Vcompete
p6321
aI3162
aa(lp6322
Vbubbling
p6323
aI3163
aa(lp6324
Vmachines
p6325
aI3164
aa(lp6326
Vpursuit
p6327
aI3165
aa(lp6328
Vhairdo
p6329
aI3166
aa(lp6330
Vseparated
p6331
aI3167
aa(lp6332
Vmeowed
p6333
aI3168
aa(lp6334
Vblocking
p6335
aI3169
aa(lp6336
Vtaunts
p6337
aI3170
aa(lp6338
Vclinging
p6339
aI3171
aa(lp6340
Via
p6341
aI3172
aa(lp6342
Vacrobatic
p6343
aI3173
aa(lp6344
Vlad
p6345
aI3174
aa(lp6346
Vgreet
p6347
aI3175
aa(lp6348
Vwriggling
p6349
aI3176
aa(lp6350
Vambulance
p6351
aI3177
aa(lp6352
Voffice
p6353
aI3178
aa(lp6354
Vsea-shore
p6355
aI3179
aa(lp6356
Vsafe
p6357
aI3180
aa(lp6358
Vbank
p6359
aI3181
aa(lp6360
Vlogo
p6361
aI3182
aa(lp6362
Vburlap
p6363
aI3183
aa(lp6364
Vtrainers
p6365
aI3184
aa(lp6366
Villustrate
p6367
aI3185
aa(lp6368
Vcrunches
p6369
aI3186
aa(lp6370
Velevator
p6371
aI3187
aa(lp6372
Vlatter
p6373
aI3188
aa(lp6374
Vdisembarking
p6375
aI3189
aa(lp6376
Vpooping
p6377
aI3190
aa(lp6378
Vsun
p6379
aI3191
aa(lp6380
Vfitted
p6381
aI3192
aa(lp6382
Vdredges
p6383
aI3193
aa(lp6384
Vsteam
p6385
aI3194
aa(lp6386
Vobserves
p6387
aI3195
aa(lp6388
Vlemonade
p6389
aI3196
aa(lp6390
Vcattle
p6391
aI3197
aa(lp6392
Vslugs
p6393
aI3198
aa(lp6394
Vwe
p6395
aI3199
aa(lp6396
Vwo
p6397
aI3200
aa(lp6398
Vcot
p6399
aI3201
aa(lp6400
Vstrummed
p6401
aI3202
aa(lp6402
Vdisappears
p6403
aI3203
aa(lp6404
Vpeacefully
p6405
aI3204
aa(lp6406
Vtony
p6407
aI3205
aa(lp6408
Vporing
p6409
aI3206
aa(lp6410
Vlaunches
p6411
aI3207
aa(lp6412
Vovertaking
p6413
aI3208
aa(lp6414
Vplateful
p6415
aI3209
aa(lp6416
Vdrip
p6417
aI3210
aa(lp6418
Vudon
p6419
aI3211
aa(lp6420
Vtaxied
p6421
aI3212
aa(lp6422
Vnuzzles
p6423
aI3213
aa(lp6424
Vasking
p6425
aI3214
aa(lp6426
Vcapped
p6427
aI3215
aa(lp6428
Vtumblers
p6429
aI3216
aa(lp6430
Vwax
p6431
aI3217
aa(lp6432
Vwar
p6433
aI3218
aa(lp6434
Vmuscular
p6435
aI3219
aa(lp6436
Vbaguette
p6437
aI3220
aa(lp6438
Vdimly
p6439
aI3221
aa(lp6440
Vbattle
p6441
aI3222
aa(lp6442
Vrectangles
p6443
aI3223
aa(lp6444
Vlayers
p6445
aI3224
aa(lp6446
Vprotective
p6447
aI3225
aa(lp6448
Vblast
p6449
aI3226
aa(lp6450
Vuniform
p6451
aI3227
aa(lp6452
Vsmearing
p6453
aI3228
aa(lp6454
Vteaches
p6455
aI3229
aa(lp6456
Vhiking
p6457
aI3230
aa(lp6458
Vseashore
p6459
aI3231
aa(lp6460
Vintently
p6461
aI3232
aa(lp6462
Vcountertop
p6463
aI3233
aa(lp6464
Vheart
p6465
aI3234
aa(lp6466
Vchin
p6467
aI3235
aa(lp6468
Vclothing
p6469
aI3236
aa(lp6470
Vburrowing
p6471
aI3237
aa(lp6472
Vbirds
p6473
aI3238
aa(lp6474
Veighths
p6475
aI3239
aa(lp6476
Vhalt
p6477
aI3240
aa(lp6478
Vritchie
p6479
aI3241
aa(lp6480
Ven
p6481
aI3242
aa(lp6482
Vhand-held
p6483
aI3243
aa(lp6484
Vreceiving
p6485
aI3244
aa(lp6486
Vshears
p6487
aI3245
aa(lp6488
Vjugs
p6489
aI3246
aa(lp6490
Vrugged
p6491
aI3247
aa(lp6492
Vtransferred
p6493
aI3248
aa(lp6494
Vbreakfast
p6495
aI3249
aa(lp6496
Vramata
p6497
aI3250
aa(lp6498
Vpattern
p6499
aI3251
aa(lp6500
Vgerman
p6501
aI3252
aa(lp6502
Vbreadcrumbs
p6503
aI3253
aa(lp6504
Vcelebrate
p6505
aI3254
aa(lp6506
Vhusband
p6507
aI3255
aa(lp6508
Vhoed
p6509
aI3256
aa(lp6510
Vwheely
p6511
aI3257
aa(lp6512
Vhelipad
p6513
aI3258
aa(lp6514
Vpureed
p6515
aI3259
aa(lp6516
Vlearning
p6517
aI3260
aa(lp6518
Vsoil
p6519
aI3261
aa(lp6520
Vhens
p6521
aI3262
aa(lp6522
Vcinder
p6523
aI3263
aa(lp6524
Vsevere
p6525
aI3264
aa(lp6526
Vpuree
p6527
aI3265
aa(lp6528
Vgreeting
p6529
aI3266
aa(lp6530
Vt
p6531
aI3267
aa(lp6532
Vrehearsing
p6533
aI3268
aa(lp6534
Vwillis
p6535
aI3269
aa(lp6536
Vplatic
p6537
aI3270
aa(lp6538
Vchefs
p6539
aI3271
aa(lp6540
Vcheff
p6541
aI3272
aa(lp6542
Vpaints
p6543
aI3273
aa(lp6544
Vstare
p6545
aI3274
aa(lp6546
Vgrater
p6547
aI3275
aa(lp6548
Vtable-tennis
p6549
aI3276
aa(lp6550
Vlol
p6551
aI3277
aa(lp6552
Vdrains
p6553
aI3278
aa(lp6554
Vappliance
p6555
aI3279
aa(lp6556
Vdrift
p6557
aI3280
aa(lp6558
Vstrings
p6559
aI3281
aa(lp6560
Vwashroom
p6561
aI3282
aa(lp6562
Vmittens
p6563
aI3283
aa(lp6564
Vscallops
p6565
aI3284
aa(lp6566
Vexcess
p6567
aI3285
aa(lp6568
Vamount
p6569
aI3286
aa(lp6570
Vsurgeions
p6571
aI3287
aa(lp6572
Vbrowned
p6573
aI3288
aa(lp6574
Vmounted
p6575
aI3289
aa(lp6576
Vthumper
p6577
aI3290
aa(lp6578
Vthumped
p6579
aI3291
aa(lp6580
Vincisions
p6581
aI3292
aa(lp6582
Vcommunicating
p6583
aI3293
aa(lp6584
Vrhinos
p6585
aI3294
aa(lp6586
Vskinning
p6587
aI3295
aa(lp6588
Vpeeing
p6589
aI3296
aa(lp6590
Vvomit
p6591
aI3297
aa(lp6592
Vtraveled
p6593
aI3298
aa(lp6594
Vintervene
p6595
aI3299
aa(lp6596
Vjaws
p6597
aI3300
aa(lp6598
Vdunk
p6599
aI3301
aa(lp6600
Vheartbeat
p6601
aI3302
aa(lp6602
Vdabbing
p6603
aI3303
aa(lp6604
Vcoolant
p6605
aI3304
aa(lp6606
Vplaypen
p6607
aI3305
aa(lp6608
Vscooted
p6609
aI3306
aa(lp6610
Vwitha
p6611
aI3307
aa(lp6612
Vx
p6613
aI3308
aa(lp6614
Vwoodchuck
p6615
aI3309
aa(lp6616
Vliked
p6617
aI3310
aa(lp6618
Vrailway-track
p6619
aI3311
aa(lp6620
Velse
p6621
aI3312
aa(lp6622
Vflees
p6623
aI3313
aa(lp6624
Vforelegs
p6625
aI3314
aa(lp6626
Vfatty
p6627
aI3315
aa(lp6628
Vsprinted
p6629
aI3316
aa(lp6630
Valbino
p6631
aI3317
aa(lp6632
Vmathematical
p6633
aI3318
aa(lp6634
Vdescribing
p6635
aI3319
aa(lp6636
Vrug
p6637
aI3320
aa(lp6638
Vseeing
p6639
aI3321
aa(lp6640
Vwithin
p6641
aI3322
aa(lp6642
Vdwayne
p6643
aI3323
aa(lp6644
Vinjection
p6645
aI3324
aa(lp6646
Vspectators
p6647
aI3325
aa(lp6648
Vrested
p6649
aI3326
aa(lp6650
Vsmiled
p6651
aI3327
aa(lp6652
Vevenly
p6653
aI3328
aa(lp6654
Vcompact
p6655
aI3329
aa(lp6656
Vtrolleys
p6657
aI3330
aa(lp6658
Vtelling
p6659
aI3331
aa(lp6660
Vshish
p6661
aI3332
aa(lp6662
Vshiso
p6663
aI3333
aa(lp6664
Vclimed
p6665
aI3334
aa(lp6666
Vyuzu
p6667
aI3335
aa(lp6668
Vaddresses
p6669
aI3336
aa(lp6670
Vpopped
p6671
aI3337
aa(lp6672
Vbecomes
p6673
aI3338
aa(lp6674
Vbroom
p6675
aI3339
aa(lp6676
Vbrocolli
p6677
aI3340
aa(lp6678
Vsandy
p6679
aI3341
aa(lp6680
Vcricketer
p6681
aI3342
aa(lp6682
Vgeometry
p6683
aI3343
aa(lp6684
Vsuckling
p6685
aI3344
aa(lp6686
Vhorseman
p6687
aI3345
aa(lp6688
Vmerrier
p6689
aI3346
aa(lp6690
Vstroked
p6691
aI3347
aa(lp6692
Vpaved
p6693
aI3348
aa(lp6694
Vbagged
p6695
aI3349
aa(lp6696
Vable
p6697
aI3350
aa(lp6698
Vstereo
p6699
aI3351
aa(lp6700
Vsummersaults
p6701
aI3352
aa(lp6702
Vslows
p6703
aI3353
aa(lp6704
Vsipping
p6705
aI3354
aa(lp6706
Vuniformed
p6707
aI3355
aa(lp6708
Vpitch
p6709
aI3356
aa(lp6710
Vwritten
p6711
aI3357
aa(lp6712
Vrinsed
p6713
aI3358
aa(lp6714
Verased
p6715
aI3359
aa(lp6716
Veraser
p6717
aI3360
aa(lp6718
Vpie
p6719
aI3361
aa(lp6720
Vexamines
p6721
aI3362
aa(lp6722
Vgazebo-like
p6723
aI3363
aa(lp6724
Vsavannah
p6725
aI3364
aa(lp6726
Vbatters
p6727
aI3365
aa(lp6728
Vsized
p6729
aI3366
aa(lp6730
Vfountain
p6731
aI3367
aa(lp6732
Vbalboa
p6733
aI3368
aa(lp6734
Vrodeo
p6735
aI3369
aa(lp6736
Vcongregate
p6737
aI3370
aa(lp6738
Vutility
p6739
aI3371
aa(lp6740
Vsynthesizer
p6741
aI3372
aa(lp6742
Vtriangular
p6743
aI3373
aa(lp6744
Vstrawberries
p6745
aI3374
aa(lp6746
Vgoals
p6747
aI3375
aa(lp6748
Vpenne
p6749
aI3376
aa(lp6750
Vbalcony
p6751
aI3377
aa(lp6752
Vstab
p6753
aI3378
aa(lp6754
Vpowdery
p6755
aI3379
aa(lp6756
Vpowders
p6757
aI3380
aa(lp6758
Vasian
p6759
aI3381
aa(lp6760
Vskills
p6761
aI3382
aa(lp6762
Vquilt
p6763
aI3383
aa(lp6764
Vjackets
p6765
aI3384
aa(lp6766
Vwelch
p6767
aI3385
aa(lp6768
Vtell
p6769
aI3386
aa(lp6770
Vwarm
p6771
aI3387
aa(lp6772
Vtrots
p6773
aI3388
aa(lp6774
Vvodka
p6775
aI3389
aa(lp6776
Vbraids
p6777
aI3390
aa(lp6778
Vabdomen
p6779
aI3391
aa(lp6780
Vpurchase
p6781
aI3392
aa(lp6782
Vglazes
p6783
aI3393
aa(lp6784
Vroast
p6785
aI3394
aa(lp6786
Vinserts
p6787
aI3395
aa(lp6788
Vskins
p6789
aI3396
aa(lp6790
Vstealing
p6791
aI3397
aa(lp6792
Vassaults
p6793
aI3398
aa(lp6794
Vaisle
p6795
aI3399
aa(lp6796
Vsteward
p6797
aI3400
aa(lp6798
Vswiping
p6799
aI3401
aa(lp6800
Vliquids
p6801
aI3402
aa(lp6802
Vhoop
p6803
aI3403
aa(lp6804
Vbuttock
p6805
aI3404
aa(lp6806
Vtwister
p6807
aI3405
aa(lp6808
Vdigs
p6809
aI3406
aa(lp6810
Vskiied
p6811
aI3407
aa(lp6812
Vseen
p6813
aI3408
aa(lp6814
Vfitting
p6815
aI3409
aa(lp6816
Vflowerettes
p6817
aI3410
aa(lp6818
Vfields
p6819
aI3411
aa(lp6820
Vgrilled
p6821
aI3412
aa(lp6822
Varsenio
p6823
aI3413
aa(lp6824
Vabdominal
p6825
aI3414
aa(lp6826
Vasks
p6827
aI3415
aa(lp6828
Vdusting
p6829
aI3416
aa(lp6830
Vreddish
p6831
aI3417
aa(lp6832
Vaeroplane
p6833
aI3418
aa(lp6834
Vpastry
p6835
aI3419
aa(lp6836
Vkit
p6837
aI3420
aa(lp6838
Vblanching
p6839
aI3421
aa(lp6840
Vmanual
p6841
aI3422
aa(lp6842
Vskateboarded
p6843
aI3423
aa(lp6844
Vkeeper
p6845
aI3424
aa(lp6846
Vmagazine
p6847
aI3425
aa(lp6848
Vchimp
p6849
aI3426
aa(lp6850
Vanti-freeze
p6851
aI3427
aa(lp6852
Vmarinara
p6853
aI3428
aa(lp6854
Vshih
p6855
aI3429
aa(lp6856
Vtoss
p6857
aI3430
aa(lp6858
Vdigital
p6859
aI3431
aa(lp6860
Vwarehouse
p6861
aI3432
aa(lp6862
Vsummersault
p6863
aI3433
aa(lp6864
Vanswered
p6865
aI3434
aa(lp6866
Vmashing
p6867
aI3435
aa(lp6868
Vfillet
p6869
aI3436
aa(lp6870
Vclerk
p6871
aI3437
aa(lp6872
Vbow
p6873
aI3438
aa(lp6874
Vraccoon
p6875
aI3439
aa(lp6876
Vsake
p6877
aI3440
aa(lp6878
Vde-shelled
p6879
aI3441
aa(lp6880
Vsharpen
p6881
aI3442
aa(lp6882
Varmpits
p6883
aI3443
aa(lp6884
Vdesigned
p6885
aI3444
aa(lp6886
Vtale
p6887
aI3445
aa(lp6888
Vafrican
p6889
aI3446
aa(lp6890
Vrabbi
p6891
aI3447
aa(lp6892
Vmonitor
p6893
aI3448
aa(lp6894
Vmaid
p6895
aI3449
aa(lp6896
Vkabobs
p6897
aI3450
aa(lp6898
Vlunch
p6899
aI3451
aa(lp6900
Vsideways
p6901
aI3452
aa(lp6902
Vwaited
p6903
aI3453
aa(lp6904
Vcrib
p6905
aI3454
aa(lp6906
Vcarry
p6907
aI3455
aa(lp6908
Vfiery
p6909
aI3456
aa(lp6910
Vdived
p6911
aI3457
aa(lp6912
Vnotches
p6913
aI3458
aa(lp6914
Vcomedian
p6915
aI3459
aa(lp6916
Voccupied
p6917
aI3460
aa(lp6918
Vperformance
p6919
aI3461
aa(lp6920
Vchannel
p6921
aI3462
aa(lp6922
Vbleating
p6923
aI3463
aa(lp6924
Vdice
p6925
aI3464
aa(lp6926
Vspraying
p6927
aI3465
aa(lp6928
Vbopping
p6929
aI3466
aa(lp6930
Vgrass-field
p6931
aI3467
aa(lp6932
Vamong
p6933
aI3468
aa(lp6934
Vunusual
p6935
aI3469
aa(lp6936
Vspills
p6937
aI3470
aa(lp6938
Vn't
p6939
aI3471
aa(lp6940
Vcock
p6941
aI3472
aa(lp6942
Vaerobics
p6943
aI3473
aa(lp6944
Vstruggling
p6945
aI3474
aa(lp6946
Vbicyclists
p6947
aI3475
aa(lp6948
V4
p6949
aI3476
aa(lp6950
Vlong-haired
p6951
aI3477
aa(lp6952
Vrailroad
p6953
aI3478
aa(lp6954
Vgrim
p6955
aI3479
aa(lp6956
Vfondling
p6957
aI3480
aa(lp6958
Vpasture
p6959
aI3481
aa(lp6960
Vbroken
p6961
aI3482
aa(lp6962
Vairline
p6963
aI3483
aa(lp6964
Vhandcuffed
p6965
aI3484
aa(lp6966
Vspicy
p6967
aI3485
aa(lp6968
Vwalkway
p6969
aI3486
aa(lp6970
Vromantic
p6971
aI3487
aa(lp6972
Vpitting
p6973
aI3488
aa(lp6974
Varranges
p6975
aI3489
aa(lp6976
Vsewed
p6977
aI3490
aa(lp6978
Vburrow
p6979
aI3491
aa(lp6980
Vgrowling
p6981
aI3492
aa(lp6982
Vworms
p6983
aI3493
aa(lp6984
Vjute
p6985
aI3494
aa(lp6986
Vhitchhiked
p6987
aI3495
aa(lp6988
Vportable
p6989
aI3496
aa(lp6990
Vstool
p6991
aI3497
aa(lp6992
Vabs
p6993
aI3498
aa(lp6994
Vflouring
p6995
aI3499
aa(lp6996
Vmovement
p6997
aI3500
aa(lp6998
Vsurfed
p6999
aI3501
aa(lp7000
Varmed
p7001
aI3502
aa(lp7002
Vsplash
p7003
aI3503
aa(lp7004
Vdunks
p7005
aI3504
aa(lp7006
Vmarble
p7007
aI3505
aa(lp7008
Vpurchased
p7009
aI3506
aa(lp7010
Vrips
p7011
aI3507
aa(lp7012
Vblood
p7013
aI3508
aa(lp7014
Vcoat
p7015
aI3509
aa(lp7016
Vdumbbells
p7017
aI3510
aa(lp7018
Vfist
p7019
aI3511
aa(lp7020
Vacting
p7021
aI3512
aa(lp7022
Vbulls
p7023
aI3513
aa(lp7024
Vmembers
p7025
aI3514
aa(lp7026
Vpolishing
p7027
aI3515
aa(lp7028
Vflares
p7029
aI3516
aa(lp7030
Vchart
p7031
aI3517
aa(lp7032
Vengagements
p7033
aI3518
aa(lp7034
Vextremely
p7035
aI3519
aa(lp7036
Vdodging
p7037
aI3520
aa(lp7038
Vsector
p7039
aI3521
aa(lp7040
Vgriddle
p7041
aI3522
aa(lp7042
Vhalves
p7043
aI3523
aa(lp7044
Vcutout
p7045
aI3524
aa(lp7046
Vaircraft
p7047
aI3525
aa(lp7048
Vvehicles
p7049
aI3526
aa(lp7050
Vbongo
p7051
aI3527
aa(lp7052
Vdancer
p7053
aI3528
aa(lp7054
Vcreate
p7055
aI3529
aa(lp7056
Vgas
p7057
aI3530
aa(lp7058
Vbackflip
p7059
aI3531
aa(lp7060
Vwags
p7061
aI3532
aa(lp7062
Vclamping
p7063
aI3533
aa(lp7064
Vglove
p7065
aI3534
aa(lp7066
Vgardening
p7067
aI3535
aa(lp7068
Vpew
p7069
aI3536
aa(lp7070
Vscalp
p7071
aI3537
aa(lp7072
Vpee
p7073
aI3538
aa(lp7074
Vjockey
p7075
aI3539
aa(lp7076
Vhomemade
p7077
aI3540
aa(lp7078
Vspoonfuls
p7079
aI3541
aa(lp7080
Vnecks
p7081
aI3542
aa(lp7082
Vemanates
p7083
aI3543
aa(lp7084
Vporch
p7085
aI3544
aa(lp7086
Vcooker
p7087
aI3545
aa(lp7088
Vamused
p7089
aI3546
aa(lp7090
Vgravel
p7091
aI3547
aa(lp7092
Vmoon-walking
p7093
aI3548
aa(lp7094
Voils
p7095
aI3549
aa(lp7096
Vcurving
p7097
aI3550
aa(lp7098
Vnips
p7099
aI3551
aa(lp7100
Vunited
p7101
aI3552
aa(lp7102
Vbluff
p7103
aI3553
aa(lp7104
Vcuddling
p7105
aI3554
aa(lp7106
Vlines
p7107
aI3555
aa(lp7108
Vshreds
p7109
aI3556
aa(lp7110
Vwhites
p7111
aI3557
aa(lp7112
Vsquatting
p7113
aI3558
aa(lp7114
Vdad
p7115
aI3559
aa(lp7116
Vslipping
p7117
aI3560
aa(lp7118
Vtubular
p7119
aI3561
aa(lp7120
Vhedges
p7121
aI3562
aa(lp7122
Voriental
p7123
aI3563
aa(lp7124
Vretrieves
p7125
aI3564
aa(lp7126
Vsouth
p7127
aI3565
aa(lp7128
Vsack
p7129
aI3566
aa(lp7130
Vcurved
p7131
aI3567
aa(lp7132
Veight
p7133
aI3568
aa(lp7134
Vprisoner
p7135
aI3569
aa(lp7136
Vtext
p7137
aI3570
aa(lp7138
Vemitting
p7139
aI3571
aa(lp7140
Vstarch
p7141
aI3572
aa(lp7142
Vfixes
p7143
aI3573
aa(lp7144
Vboundary
p7145
aI3574
aa(lp7146
Vtoting
p7147
aI3575
aa(lp7148
Vwringing
p7149
aI3576
aa(lp7150
Vswimmer
p7151
aI3577
aa(lp7152
Vcarved
p7153
aI3578
aa(lp7154
Vhaunches
p7155
aI3579
aa(lp7156
Vax
p7157
aI3580
aa(lp7158
Vbuilder
p7159
aI3581
aa(lp7160
Vposition
p7161
aI3582
aa(lp7162
Vswordfight
p7163
aI3583
aa(lp7164
Vpit
p7165
aI3584
aa(lp7166
Vsurreal
p7167
aI3585
aa(lp7168
Vbaker
p7169
aI3586
aa(lp7170
Vbaked
p7171
aI3587
aa(lp7172
Vbarracks
p7173
aI3588
aa(lp7174
Vtweezing
p7175
aI3589
aa(lp7176
Vsupplies
p7177
aI3590
aa(lp7178
Vsmeone
p7179
aI3591
aa(lp7180
Vblowtorch
p7181
aI3592
aa(lp7182
Vmeaty
p7183
aI3593
aa(lp7184
Vadjacent
p7185
aI3594
aa(lp7186
Vbadly
p7187
aI3595
aa(lp7188
Vwhittle
p7189
aI3596
aa(lp7190
Vwhips
p7191
aI3597
aa(lp7192
Vshadows
p7193
aI3598
aa(lp7194
Vjuggling
p7195
aI3599
aa(lp7196
Vsplashed
p7197
aI3600
aa(lp7198
Vambled
p7199
aI3601
aa(lp7200
Vsplashes
p7201
aI3602
aa(lp7202
Vritual
p7203
aI3603
aa(lp7204
Vtow
p7205
aI3604
aa(lp7206
Vwildly
p7207
aI3605
aa(lp7208
Vflame
p7209
aI3606
aa(lp7210
Vrotors
p7211
aI3607
aa(lp7212
Vballing
p7213
aI3608
aa(lp7214
Vinterviewing
p7215
aI3609
aa(lp7216
Vaquarium
p7217
aI3610
aa(lp7218
Vdrowsy
p7219
aI3611
aa(lp7220
Vanchors
p7221
aI3612
aa(lp7222
Vpecked
p7223
aI3613
aa(lp7224
Vlollypop
p7225
aI3614
aa(lp7226
Vexterior
p7227
aI3615
aa(lp7228
Vjean
p7229
aI3616
aa(lp7230
Vbruise
p7231
aI3617
aa(lp7232
Vteenager
p7233
aI3618
aa(lp7234
Vhunk
p7235
aI3619
aa(lp7236
Vcnc
p7237
aI3620
aa(lp7238
Vcord
p7239
aI3621
aa(lp7240
Vmechanized
p7241
aI3622
aa(lp7242
Vplying
p7243
aI3623
aa(lp7244
Vsurround
p7245
aI3624
aa(lp7246
Vbats
p7247
aI3625
aa(lp7248
Vmannequins
p7249
aI3626
aa(lp7250
Vyounger
p7251
aI3627
aa(lp7252
Vsacks
p7253
aI3628
aa(lp7254
Vhatter
p7255
aI3629
aa(lp7256
Vposts
p7257
aI3630
aa(lp7258
Vsays
p7259
aI3631
aa(lp7260
Vgroups
p7261
aI3632
aa(lp7262
V[
p7263
aI3633
aa(lp7264
Vunidentified
p7265
aI3634
aa(lp7266
Vshelled
p7267
aI3635
aa(lp7268
Vminibike
p7269
aI3636
aa(lp7270
Vsledgehammer
p7271
aI3637
aa(lp7272
Vhandled
p7273
aI3638
aa(lp7274
Vsports
p7275
aI3639
aa(lp7276
Vlaughter
p7277
aI3640
aa(lp7278
Vstroke
p7279
aI3641
aa(lp7280
Vcounting
p7281
aI3642
aa(lp7282
Vsailboat
p7283
aI3643
aa(lp7284
Vstenograph
p7285
aI3644
aa(lp7286
Vclassroom
p7287
aI3645
aa(lp7288
Vlagoon
p7289
aI3646
aa(lp7290
Vacts
p7291
aI3647
aa(lp7292
Vblocked
p7293
aI3648
aa(lp7294
Vcheerleaders
p7295
aI3649
aa(lp7296
Vslumps
p7297
aI3650
aa(lp7298
Vnodding
p7299
aI3651
aa(lp7300
Vyanni
p7301
aI3652
aa(lp7302
Vtreading
p7303
aI3653
aa(lp7304
Vbutterflies
p7305
aI3654
aa(lp7306
Vteammates
p7307
aI3655
aa(lp7308
Vhug
p7309
aI3656
aa(lp7310
Vmates
p7311
aI3657
aa(lp7312
Vresembling
p7313
aI3658
aa(lp7314
Vsurf
p7315
aI3659
aa(lp7316
Vshooter
p7317
aI3660
aa(lp7318
Vcuddled
p7319
aI3661
aa(lp7320
Vapplicator
p7321
aI3662
aa(lp7322
Vperch
p7323
aI3663
aa(lp7324
Vtrot
p7325
aI3664
aa(lp7326
Vcrime
p7327
aI3665
aa(lp7328
Vjoker
p7329
aI3666
aa(lp7330
Vbought
p7331
aI3667
aa(lp7332
Vdiscussing
p7333
aI3668
aa(lp7334
Vcomedic
p7335
aI3669
aa(lp7336
Vpercussionist
p7337
aI3670
aa(lp7338
Vsatisfaction
p7339
aI3671
aa(lp7340
Vpod
p7341
aI3672
aa(lp7342
Vengine
p7343
aI3673
aa(lp7344
Vcash
p7345
aI3674
aa(lp7346
Varnold
p7347
aI3675
aa(lp7348
Vmound
p7349
aI3676
aa(lp7350
Vslippers
p7351
aI3677
aa(lp7352
Vvest
p7353
aI3678
aa(lp7354
Vpunches
p7355
aI3679
aa(lp7356
Vpunched
p7357
aI3680
aa(lp7358
Vpruning
p7359
aI3681
aa(lp7360
Vhelmet
p7361
aI3682
aa(lp7362
Vcheck
p7363
aI3683
aa(lp7364
Vtoweling
p7365
aI3684
aa(lp7366
Vbarefoot
p7367
aI3685
aa(lp7368
Vchanging
p7369
aI3686
aa(lp7370
Vflakes
p7371
aI3687
aa(lp7372
Vactions
p7373
aI3688
aa(lp7374
Vcaptured
p7375
aI3689
aa(lp7376
Vlets
p7377
aI3690
aa(lp7378
Vcolor
p7379
aI3691
aa(lp7380
Vbuddha
p7381
aI3692
aa(lp7382
Vitching
p7383
aI3693
aa(lp7384
Vwaded
p7385
aI3694
aa(lp7386
Vos
p7387
aI3695
aa(lp7388
Vwater-tub
p7389
aI3696
aa(lp7390
Vcabinet
p7391
aI3697
aa(lp7392
Vavacado
p7393
aI3698
aa(lp7394
Vpillows
p7395
aI3699
aa(lp7396
Vcurve
p7397
aI3700
aa(lp7398
Vseals
p7399
aI3701
aa(lp7400
Vsurgical
p7401
aI3702
aa(lp7402
Vlining
p7403
aI3703
aa(lp7404
Vprogram
p7405
aI3704
aa(lp7406
Vliter
p7407
aI3705
aa(lp7408
Vfar
p7409
aI3706
aa(lp7410
Vskewering
p7411
aI3707
aa(lp7412
Vcockatoo
p7413
aI3708
aa(lp7414
Vten
p7415
aI3709
aa(lp7416
Vtoothpick
p7417
aI3710
aa(lp7418
Vtags
p7419
aI3711
aa(lp7420
Vallows
p7421
aI3712
aa(lp7422
Velongated
p7423
aI3713
aa(lp7424
Vprimate
p7425
aI3714
aa(lp7426
Vessence
p7427
aI3715
aa(lp7428
Vmattress
p7429
aI3716
aa(lp7430
Vacoustical
p7431
aI3717
aa(lp7432
Vmight
p7433
aI3718
aa(lp7434
Vgenerously
p7435
aI3719
aa(lp7436
Vinstructions
p7437
aI3720
aa(lp7438
Vwarm-up
p7439
aI3721
aa(lp7440
Vfinding
p7441
aI3722
aa(lp7442
Vmeasured
p7443
aI3723
aa(lp7444
Vgrazed
p7445
aI3724
aa(lp7446
Vtills
p7447
aI3725
aa(lp7448
Vinvestigate
p7449
aI3726
aa(lp7450
Vcartoons
p7451
aI3727
aa(lp7452
Vbare
p7453
aI3728
aa(lp7454
Vcreating
p7455
aI3729
aa(lp7456
Vattention
p7457
aI3730
aa(lp7458
Vbronze
p7459
aI3731
aa(lp7460
Vwastebasket
p7461
aI3732
aa(lp7462
Vnipping
p7463
aI3733
aa(lp7464
Vbatch
p7465
aI3734
aa(lp7466
Vrollerskating
p7467
aI3735
aa(lp7468
Vrib
p7469
aI3736
aa(lp7470
Vnoodle
p7471
aI3737
aa(lp7472
Vacrobatics
p7473
aI3738
aa(lp7474
Vwonderland
p7475
aI3739
aa(lp7476
Vsaucer
p7477
aI3740
aa(lp7478
Vprop
p7479
aI3741
aa(lp7480
Vbookshelves
p7481
aI3742
aa(lp7482
Vamidst
p7483
aI3743
aa(lp7484
Vcalled
p7485
aI3744
aa(lp7486
Vsoars
p7487
aI3745
aa(lp7488
Vrainbow
p7489
aI3746
aa(lp7490
Vproblems
p7491
aI3747
aa(lp7492
Vjoining
p7493
aI3748
aa(lp7494
Vattire
p7495
aI3749
aa(lp7496
Vbowled
p7497
aI3750
aa(lp7498
Vunderwood
p7499
aI3751
aa(lp7500
Vsexy
p7501
aI3752
aa(lp7502
Vmeatball
p7503
aI3753
aa(lp7504
Vscaled
p7505
aI3754
aa(lp7506
Vdropper
p7507
aI3755
aa(lp7508
Vshoves
p7509
aI3756
aa(lp7510
Vgalloped
p7511
aI3757
aa(lp7512
Vuse
p7513
aI3758
aa(lp7514
Vcupboard
p7515
aI3759
aa(lp7516
Vmasks
p7517
aI3760
aa(lp7518
Vwrist
p7519
aI3761
aa(lp7520
Vrestrain
p7521
aI3762
aa(lp7522
Veasel
p7523
aI3763
aa(lp7524
Vflorets
p7525
aI3764
aa(lp7526
Vsculpting
p7527
aI3765
aa(lp7528
Vwakening
p7529
aI3766
aa(lp7530
Vsignboard
p7531
aI3767
aa(lp7532
Vsquealing
p7533
aI3768
aa(lp7534
Vsculpture
p7535
aI3769
aa(lp7536
Vteenagers
p7537
aI3770
aa(lp7538
Vangle
p7539
aI3771
aa(lp7540
Vtopmost
p7541
aI3772
aa(lp7542
Vstitching
p7543
aI3773
aa(lp7544
Vmarried
p7545
aI3774
aa(lp7546
Vladled
p7547
aI3775
aa(lp7548
Vladles
p7549
aI3776
aa(lp7550
Vsnuck
p7551
aI3777
aa(lp7552
Vkneaded
p7553
aI3778
aa(lp7554
Vwheelbarrows
p7555
aI3779
aa(lp7556
Vrocker
p7557
aI3780
aa(lp7558
Vcries
p7559
aI3781
aa(lp7560
Vrocked
p7561
aI3782
aa(lp7562
Varresting
p7563
aI3783
aa(lp7564
Vreadymade
p7565
aI3784
aa(lp7566
Vjars
p7567
aI3785
aa(lp7568
Vfacial
p7569
aI3786
aa(lp7570
Vpress
p7571
aI3787
aa(lp7572
Vcutlet
p7573
aI3788
aa(lp7574
Vbecause
p7575
aI3789
aa(lp7576
Vsequence
p7577
aI3790
aa(lp7578
Vsearching
p7579
aI3791
aa(lp7580
Vscares
p7581
aI3792
aa(lp7582
Vleak
p7583
aI3793
aa(lp7584
Vpolice-man
p7585
aI3794
aa(lp7586
Vleap
p7587
aI3795
aa(lp7588
Vsoaks
p7589
aI3796
aa(lp7590
Vbeard
p7591
aI3797
aa(lp7592
Vsqueeze
p7593
aI3798
aa(lp7594
Vunfolding
p7595
aI3799
aa(lp7596
Vgnawing
p7597
aI3800
aa(lp7598
Vdomesticated
p7599
aI3801
aa(lp7600
Vfawn
p7601
aI3802
aa(lp7602
Vcomically
p7603
aI3803
aa(lp7604
Velectricity
p7605
aI3804
aa(lp7606
Vswivel
p7607
aI3805
aa(lp7608
Vstabbed
p7609
aI3806
aa(lp7610
Vbarraged
p7611
aI3807
aa(lp7612
Vpiling
p7613
aI3808
aa(lp7614
Vcrotch
p7615
aI3809
aa(lp7616
Vsuccession
p7617
aI3810
aa(lp7618
Vspecially
p7619
aI3811
aa(lp7620
Vnigh
p7621
aI3812
aa(lp7622
Vswitchblade
p7623
aI3813
aa(lp7624
Vbannister
p7625
aI3814
aa(lp7626
Vshrugging
p7627
aI3815
aa(lp7628
Vsailed
p7629
aI3816
aa(lp7630
Vscraped
p7631
aI3817
aa(lp7632
Vsnuggled
p7633
aI3818
aa(lp7634
Vdangled
p7635
aI3819
aa(lp7636
Vthunder
p7637
aI3820
aa(lp7638
Vdangles
p7639
aI3821
aa(lp7640
Verror
p7641
aI3822
aa(lp7642
Vhere
p7643
aI3823
aa(lp7644
Vreports
p7645
aI3824
aa(lp7646
Vpowdering
p7647
aI3825
aa(lp7648
Vclimber
p7649
aI3826
aa(lp7650
Vdrys
p7651
aI3827
aa(lp7652
Vopponents
p7653
aI3828
aa(lp7654
Vchinchilla
p7655
aI3829
aa(lp7656
Vstrike
p7657
aI3830
aa(lp7658
Vmenaces
p7659
aI3831
aa(lp7660
Vsomehting
p7661
aI3832
aa(lp7662
Vsway
p7663
aI3833
aa(lp7664
Vplunger
p7665
aI3834
aa(lp7666
Vorganized
p7667
aI3835
aa(lp7668
Vauger
p7669
aI3836
aa(lp7670
Vsalmons
p7671
aI3837
aa(lp7672
Vphonecall
p7673
aI3838
aa(lp7674
Vbeauty
p7675
aI3839
aa(lp7676
Vtyped
p7677
aI3840
aa(lp7678
Vwrong
p7679
aI3841
aa(lp7680
Vcolorfully
p7681
aI3842
aa(lp7682
Vcalves
p7683
aI3843
aa(lp7684
Vbaggage
p7685
aI3844
aa(lp7686
Vhores
p7687
aI3845
aa(lp7688
Vfoodstuff
p7689
aI3846
aa(lp7690
Vwrought
p7691
aI3847
aa(lp7692
Vplayhouse
p7693
aI3848
aa(lp7694
Vliqud
p7695
aI3849
aa(lp7696
Vbringing
p7697
aI3850
aa(lp7698
Vfig
p7699
aI3851
aa(lp7700
Vvideo-game
p7701
aI3852
aa(lp7702
Vrink
p7703
aI3853
aa(lp7704
Vspider
p7705
aI3854
aa(lp7706
Vknit
p7707
aI3855
aa(lp7708
Vcompetes
p7709
aI3856
aa(lp7710
Vseads
p7711
aI3857
aa(lp7712
Vheading
p7713
aI3858
aa(lp7714
Vcompeted
p7715
aI3859
aa(lp7716
Vbagful
p7717
aI3860
aa(lp7718
Vshopper
p7719
aI3861
aa(lp7720
Vbitten
p7721
aI3862
aa(lp7722
Vtired
p7723
aI3863
aa(lp7724
Vneeded
p7725
aI3864
aa(lp7726
Vmaster
p7727
aI3865
aa(lp7728
Vcritter
p7729
aI3866
aa(lp7730
Vgrown-up
p7731
aI3867
aa(lp7732
Vcushions
p7733
aI3868
aa(lp7734
Vskimmed
p7735
aI3869
aa(lp7736
Vfeeling
p7737
aI3870
aa(lp7738
Vrunner
p7739
aI3871
aa(lp7740
Vguineapig
p7741
aI3872
aa(lp7742
Vsculpturing
p7743
aI3873
aa(lp7744
Vreleased
p7745
aI3874
aa(lp7746
Vforiegn
p7747
aI3875
aa(lp7748
Vpadded
p7749
aI3876
aa(lp7750
Vparticipate
p7751
aI3877
aa(lp7752
Vmenu
p7753
aI3878
aa(lp7754
Vmens
p7755
aI3879
aa(lp7756
Vrihanna
p7757
aI3880
aa(lp7758
Vvaccinations
p7759
aI3881
aa(lp7760
Vtips
p7761
aI3882
aa(lp7762
Vboarder
p7763
aI3883
aa(lp7764
Vpade
p7765
aI3884
aa(lp7766
Voceanic
p7767
aI3885
aa(lp7768
Vpirate
p7769
aI3886
aa(lp7770
Vclaws
p7771
aI3887
aa(lp7772
Vtoilette
p7773
aI3888
aa(lp7774
Vstrip-slicer
p7775
aI3889
aa(lp7776
Veye-shado
p7777
aI3890
aa(lp7778
Vargue
p7779
aI3891
aa(lp7780
Vasked
p7781
aI3892
aa(lp7782
Vmunched
p7783
aI3893
aa(lp7784
Vhumming
p7785
aI3894
aa(lp7786
Vchiseling
p7787
aI3895
aa(lp7788
Vsuperhuman
p7789
aI3896
aa(lp7790
Vdollies
p7791
aI3897
aa(lp7792
Vlife
p7793
aI3898
aa(lp7794
Vskiis
p7795
aI3899
aa(lp7796
Vchile
p7797
aI3900
aa(lp7798
Vkamakodo
p7799
aI3901
aa(lp7800
Vthree-piece
p7801
aI3902
aa(lp7802
Vcanoeing
p7803
aI3903
aa(lp7804
Vkohl
p7805
aI3904
aa(lp7806
Vtops
p7807
aI3905
aa(lp7808
Vtune
p7809
aI3906
aa(lp7810
Vweight-lifter
p7811
aI3907
aa(lp7812
Vonion-looking
p7813
aI3908
aa(lp7814
Vrushing
p7815
aI3909
aa(lp7816
Vham
p7817
aI3910
aa(lp7818
Vold-fashioned
p7819
aI3911
aa(lp7820
Vcreek
p7821
aI3912
aa(lp7822
Vplucked
p7823
aI3913
aa(lp7824
Vfom
p7825
aI3914
aa(lp7826
Vpinched
p7827
aI3915
aa(lp7828
Vhanseter
p7829
aI3916
aa(lp7830
Vchin-up
p7831
aI3917
aa(lp7832
Vpincher
p7833
aI3918
aa(lp7834
Vbowing
p7835
aI3919
aa(lp7836
Vchain-link
p7837
aI3920
aa(lp7838
Vstoreroom
p7839
aI3921
aa(lp7840
Vslightly
p7841
aI3922
aa(lp7842
Vgauze
p7843
aI3923
aa(lp7844
Vmagazines
p7845
aI3924
aa(lp7846
Vsupport
p7847
aI3925
aa(lp7848
Vconstantly
p7849
aI3926
aa(lp7850
Vjane
p7851
aI3927
aa(lp7852
Voffer
p7853
aI3928
aa(lp7854
Vtigers
p7855
aI3929
aa(lp7856
Vlayd
p7857
aI3930
aa(lp7858
Vmosture
p7859
aI3931
aa(lp7860
Vsmashed
p7861
aI3932
aa(lp7862
Vduet
p7863
aI3933
aa(lp7864
Vtournament
p7865
aI3934
aa(lp7866
Vmicrowaving
p7867
aI3935
aa(lp7868
Vuttered
p7869
aI3936
aa(lp7870
Vhydrating
p7871
aI3937
aa(lp7872
Vtransported
p7873
aI3938
aa(lp7874
V'n
p7875
aI3939
aa(lp7876
Vhawker
p7877
aI3940
aa(lp7878
Vexplosions
p7879
aI3941
aa(lp7880
Vshootout
p7881
aI3942
aa(lp7882
Vgown
p7883
aI3943
aa(lp7884
Vincividual
p7885
aI3944
aa(lp7886
Vballes
p7887
aI3945
aa(lp7888
Vblack-and-white-cat
p7889
aI3946
aa(lp7890
Vprances
p7891
aI3947
aa(lp7892
Vteat
p7893
aI3948
aa(lp7894
Vpanima
p7895
aI3949
aa(lp7896
Vshirts
p7897
aI3950
aa(lp7898
Vbagging
p7899
aI3951
aa(lp7900
Vghost-like
p7901
aI3952
aa(lp7902
Vaxes
p7903
aI3953
aa(lp7904
Vshappens
p7905
aI3954
aa(lp7906
Vcurrent
p7907
aI3955
aa(lp7908
Vbungalow
p7909
aI3956
aa(lp7910
Vcelebrates
p7911
aI3957
aa(lp7912
Vbanister
p7913
aI3958
aa(lp7914
Vyards
p7915
aI3959
aa(lp7916
Vpassengers
p7917
aI3960
aa(lp7918
Vstudies
p7919
aI3961
aa(lp7920
Vfake
p7921
aI3962
aa(lp7922
Vtraversing
p7923
aI3963
aa(lp7924
Vpara-sailing
p7925
aI3964
aa(lp7926
Vtightly
p7927
aI3965
aa(lp7928
Vtopples
p7929
aI3966
aa(lp7930
Vwondering
p7931
aI3967
aa(lp7932
Vfilms
p7933
aI3968
aa(lp7934
Vloving
p7935
aI3969
aa(lp7936
Vgrassing
p7937
aI3970
aa(lp7938
Vslaloming
p7939
aI3971
aa(lp7940
Vlocks
p7941
aI3972
aa(lp7942
Vdivided
p7943
aI3973
aa(lp7944
Vcirlces
p7945
aI3974
aa(lp7946
Velephany
p7947
aI3975
aa(lp7948
Vexplores
p7949
aI3976
aa(lp7950
Vexplorer
p7951
aI3977
aa(lp7952
Vexplored
p7953
aI3978
aa(lp7954
Vdate
p7955
aI3979
aa(lp7956
Vlids
p7957
aI3980
aa(lp7958
Vsquba
p7959
aI3981
aa(lp7960
Vsh
p7961
aI3982
aa(lp7962
Vtravel
p7963
aI3983
aa(lp7964
Vse
p7965
aI3984
aa(lp7966
Vdrunken
p7967
aI3985
aa(lp7968
Vpush-upson
p7969
aI3986
aa(lp7970
Vjig
p7971
aI3987
aa(lp7972
Vaccordion
p7973
aI3988
aa(lp7974
Vtorn
p7975
aI3989
aa(lp7976
Vsuspension
p7977
aI3990
aa(lp7978
Vsubordinates
p7979
aI3991
aa(lp7980
Vrecords
p7981
aI3992
aa(lp7982
Varriving
p7983
aI3993
aa(lp7984
Vfisherman
p7985
aI3994
aa(lp7986
Vretrieve
p7987
aI3995
aa(lp7988
Vbeetle
p7989
aI3996
aa(lp7990
Vtwo-piece
p7991
aI3997
aa(lp7992
Vnaked
p7993
aI3998
aa(lp7994
Vcontained
p7995
aI3999
aa(lp7996
Vigniting
p7997
aI4000
aa(lp7998
Vhairdresser
p7999
aI4001
aa(lp8000
Vquadropod
p8001
aI4002
aa(lp8002
Vplea
p8003
aI4003
aa(lp8004
Veel-like
p8005
aI4004
aa(lp8006
Vlaldy
p8007
aI4005
aa(lp8008
Vbisquit
p8009
aI4006
aa(lp8010
Vslashes
p8011
aI4007
aa(lp8012
Vartifact
p8013
aI4008
aa(lp8014
Vpotoatoe
p8015
aI4009
aa(lp8016
Vglossy
p8017
aI4010
aa(lp8018
Vjanitor
p8019
aI4011
aa(lp8020
Vlocations
p8021
aI4012
aa(lp8022
Vsad
p8023
aI4013
aa(lp8024
Vsaw
p8025
aI4014
aa(lp8026
Vscrammbling
p8027
aI4015
aa(lp8028
Vknead
p8029
aI4016
aa(lp8030
Vroadside
p8031
aI4017
aa(lp8032
Vmaneuvering
p8033
aI4018
aa(lp8034
Vnewscasters
p8035
aI4019
aa(lp8036
Vfenced-in
p8037
aI4020
aa(lp8038
Vcrochet
p8039
aI4021
aa(lp8040
Vknee
p8041
aI4022
aa(lp8042
Vinserted
p8043
aI4023
aa(lp8044
Vcushioned
p8045
aI4024
aa(lp8046
Vcherry
p8047
aI4025
aa(lp8048
Vbyclist
p8049
aI4026
aa(lp8050
Vstenotype
p8051
aI4027
aa(lp8052
Vaimlessly
p8053
aI4028
aa(lp8054
Vrobe
p8055
aI4029
aa(lp8056
Vclawing
p8057
aI4030
aa(lp8058
Vrobb
p8059
aI4031
aa(lp8060
Vassistant
p8061
aI4032
aa(lp8062
Vgerbal'sa
p8063
aI4033
aa(lp8064
Vtrys
p8065
aI4034
aa(lp8066
Vbombs
p8067
aI4035
aa(lp8068
Vpepperonies
p8069
aI4036
aa(lp8070
Vcheesecloth
p8071
aI4037
aa(lp8072
Vsurgery
p8073
aI4038
aa(lp8074
Vcube-size
p8075
aI4039
aa(lp8076
Vshakkira
p8077
aI4040
aa(lp8078
Vmops
p8079
aI4041
aa(lp8080
Vmoons
p8081
aI4042
aa(lp8082
Vjumper
p8083
aI4043
aa(lp8084
Vfarts
p8085
aI4044
aa(lp8086
Vbusting
p8087
aI4045
aa(lp8088
Vloafs
p8089
aI4046
aa(lp8090
Vparapet
p8091
aI4047
aa(lp8092
Vs
p8093
aI4048
aa(lp8094
Vexpression
p8095
aI4049
aa(lp8096
Vsubmerging
p8097
aI4050
aa(lp8098
Vtoothpaste
p8099
aI4051
aa(lp8100
Vbreath
p8101
aI4052
aa(lp8102
Vexcreting
p8103
aI4053
aa(lp8104
Vwants
p8105
aI4054
aa(lp8106
Vbrocoli
p8107
aI4055
aa(lp8108
Vtatoos
p8109
aI4056
aa(lp8110
Vstraighten
p8111
aI4057
aa(lp8112
Valuminium
p8113
aI4058
aa(lp8114
Vtased
p8115
aI4059
aa(lp8116
Vcafe
p8117
aI4060
aa(lp8118
Vslam-dunking
p8119
aI4061
aa(lp8120
Vwrappers
p8121
aI4062
aa(lp8122
Vbarbed
p8123
aI4063
aa(lp8124
Vwires
p8125
aI4064
aa(lp8126
Vwired
p8127
aI4065
aa(lp8128
Vadvertisement
p8129
aI4066
aa(lp8130
Vbooster
p8131
aI4067
aa(lp8132
Vcrusty
p8133
aI4068
aa(lp8134
Vsails
p8135
aI4069
aa(lp8136
Vkennel
p8137
aI4070
aa(lp8138
Vpickled
p8139
aI4071
aa(lp8140
Vpresentation
p8141
aI4072
aa(lp8142
Vscatched
p8143
aI4073
aa(lp8144
Vtote
p8145
aI4074
aa(lp8146
Vcavity
p8147
aI4075
aa(lp8148
Vsearing
p8149
aI4076
aa(lp8150
Vbelches
p8151
aI4077
aa(lp8152
Vescelator
p8153
aI4078
aa(lp8154
Vfished
p8155
aI4079
aa(lp8156
Vslender
p8157
aI4080
aa(lp8158
Vunpacks
p8159
aI4081
aa(lp8160
Vstony
p8161
aI4082
aa(lp8162
Vcurling
p8163
aI4083
aa(lp8164
Vchoppers
p8165
aI4084
aa(lp8166
Vfishes
p8167
aI4085
aa(lp8168
Vjumpped
p8169
aI4086
aa(lp8170
Vlounging
p8171
aI4087
aa(lp8172
Vcomplete
p8173
aI4088
aa(lp8174
Vpinneapple
p8175
aI4089
aa(lp8176
Vbundt
p8177
aI4090
aa(lp8178
Vplucks
p8179
aI4091
aa(lp8180
Vmice
p8181
aI4092
aa(lp8182
Vdirty
p8183
aI4093
aa(lp8184
Vone-handed
p8185
aI4094
aa(lp8186
Vdetailed
p8187
aI4095
aa(lp8188
Vcarves
p8189
aI4096
aa(lp8190
Vab
p8191
aI4097
aa(lp8192
Vjohnny
p8193
aI4098
aa(lp8194
Vmoutain
p8195
aI4099
aa(lp8196
Vadmiring
p8197
aI4100
aa(lp8198
Vtwists
p8199
aI4101
aa(lp8200
Velvis
p8201
aI4102
aa(lp8202
Vsit-ups
p8203
aI4103
aa(lp8204
Vmidget
p8205
aI4104
aa(lp8206
Vtricky
p8207
aI4105
aa(lp8208
Vgroom
p8209
aI4106
aa(lp8210
Vdressing
p8211
aI4107
aa(lp8212
Vknotted
p8213
aI4108
aa(lp8214
Vuncaged
p8215
aI4109
aa(lp8216
Vswallows
p8217
aI4110
aa(lp8218
Vdiary
p8219
aI4111
aa(lp8220
Vfloater
p8221
aI4112
aa(lp8222
Vstir-frying
p8223
aI4113
aa(lp8224
Vaccompanying
p8225
aI4114
aa(lp8226
Vlawnmower
p8227
aI4115
aa(lp8228
Vdodged
p8229
aI4116
aa(lp8230
Vlecturing
p8231
aI4117
aa(lp8232
Vbicyle
p8233
aI4118
aa(lp8234
Vleis
p8235
aI4119
aa(lp8236
Vbicylce
p8237
aI4120
aa(lp8238
Vstore-wrapped
p8239
aI4121
aa(lp8240
Vrummaging
p8241
aI4122
aa(lp8242
Vgose
p8243
aI4123
aa(lp8244
Vdarkens
p8245
aI4124
aa(lp8246
Vselect
p8247
aI4125
aa(lp8248
Valcoholic
p8249
aI4126
aa(lp8250
V6
p8251
aI4127
aa(lp8252
Vionion
p8253
aI4128
aa(lp8254
Vskatboarded
p8255
aI4129
aa(lp8256
Vocena
p8257
aI4130
aa(lp8258
Vvideoclip
p8259
aI4131
aa(lp8260
Vgallop
p8261
aI4132
aa(lp8262
Vsalts
p8263
aI4133
aa(lp8264
Vdazzle
p8265
aI4134
aa(lp8266
Vskatboarder
p8267
aI4135
aa(lp8268
Vfreshly
p8269
aI4136
aa(lp8270
Vsympathize
p8271
aI4137
aa(lp8272
Vthickener
p8273
aI4138
aa(lp8274
Vresemble
p8275
aI4139
aa(lp8276
Vrottweiler
p8277
aI4140
aa(lp8278
Vmousse
p8279
aI4141
aa(lp8280
Vpana
p8281
aI4142
aa(lp8282
Vpane
p8283
aI4143
aa(lp8284
Vtravelling
p8285
aI4144
aa(lp8286
Vtentatively
p8287
aI4145
aa(lp8288
Vhook
p8289
aI4146
aa(lp8290
Vpiping
p8291
aI4147
aa(lp8292
Vsquirrrel
p8293
aI4148
aa(lp8294
Vshocking
p8295
aI4149
aa(lp8296
Vcoring
p8297
aI4150
aa(lp8298
Veyelash
p8299
aI4151
aa(lp8300
Vwayons
p8301
aI4152
aa(lp8302
Vsalute
p8303
aI4153
aa(lp8304
Vteppanyaki
p8305
aI4154
aa(lp8306
Vrises
p8307
aI4155
aa(lp8308
Vtenderizing
p8309
aI4156
aa(lp8310
Vw
p8311
aI4157
aa(lp8312
Vclump
p8313
aI4158
aa(lp8314
Vfeeder
p8315
aI4159
aa(lp8316
Vdiffer
p8317
aI4160
aa(lp8318
Vswipe
p8319
aI4161
aa(lp8320
Vflings
p8321
aI4162
aa(lp8322
Vgetaway
p8323
aI4163
aa(lp8324
Vtummy
p8325
aI4164
aa(lp8326
Vmarriage
p8327
aI4165
aa(lp8328
Va..guitar
p8329
aI4166
aa(lp8330
Vpedestrian
p8331
aI4167
aa(lp8332
Vjostle
p8333
aI4168
aa(lp8334
Vknobs
p8335
aI4169
aa(lp8336
Vblackboard
p8337
aI4170
aa(lp8338
Vswiftly
p8339
aI4171
aa(lp8340
Vdirtbike
p8341
aI4172
aa(lp8342
Vcolliding
p8343
aI4173
aa(lp8344
Vbarren
p8345
aI4174
aa(lp8346
Vseasing
p8347
aI4175
aa(lp8348
Vdefender
p8349
aI4176
aa(lp8350
Vtogther
p8351
aI4177
aa(lp8352
Vkeychain
p8353
aI4178
aa(lp8354
Vgooey
p8355
aI4179
aa(lp8356
Vzip-bag
p8357
aI4180
aa(lp8358
Voccuring
p8359
aI4181
aa(lp8360
Vsunny
p8361
aI4182
aa(lp8362
Vsynchronization
p8363
aI4183
aa(lp8364
Vactress
p8365
aI4184
aa(lp8366
Vbanner
p8367
aI4185
aa(lp8368
Vcry
p8369
aI4186
aa(lp8370
Vwaling
p8371
aI4187
aa(lp8372
Vguides
p8373
aI4188
aa(lp8374
Vmonsters
p8375
aI4189
aa(lp8376
Venclosures
p8377
aI4190
aa(lp8378
Vadjoining
p8379
aI4191
aa(lp8380
Vcartoon-man
p8381
aI4192
aa(lp8382
Vsea-doo
p8383
aI4193
aa(lp8384
Vstomping
p8385
aI4194
aa(lp8386
Vwheeler
p8387
aI4195
aa(lp8388
Vracer
p8389
aI4196
aa(lp8390
Vawake
p8391
aI4197
aa(lp8392
Vhandling
p8393
aI4198
aa(lp8394
Vlade
p8395
aI4199
aa(lp8396
Vowen
p8397
aI4200
aa(lp8398
Vbinding
p8399
aI4201
aa(lp8400
Vfibers
p8401
aI4202
aa(lp8402
Vfetching
p8403
aI4203
aa(lp8404
Vrules
p8405
aI4204
aa(lp8406
Vwaddles
p8407
aI4205
aa(lp8408
Vhandcuffing
p8409
aI4206
aa(lp8410
Vclasped
p8411
aI4207
aa(lp8412
Vunto
p8413
aI4208
aa(lp8414
Vdrizzled
p8415
aI4209
aa(lp8416
Vcuffs
p8417
aI4210
aa(lp8418
Vdhal
p8419
aI4211
aa(lp8420
Vshoestring
p8421
aI4212
aa(lp8422
Vharvesting
p8423
aI4213
aa(lp8424
Vjutting
p8425
aI4214
aa(lp8426
Vclutches
p8427
aI4215
aa(lp8428
Vtoadstools
p8429
aI4216
aa(lp8430
Vmanhandling
p8431
aI4217
aa(lp8432
Vcontinue
p8433
aI4218
aa(lp8434
Vtribes
p8435
aI4219
aa(lp8436
Vclipping
p8437
aI4220
aa(lp8438
Vbite-size
p8439
aI4221
aa(lp8440
Vpale
p8441
aI4222
aa(lp8442
Vcupped
p8443
aI4223
aa(lp8444
Vdating
p8445
aI4224
aa(lp8446
Vconcealer
p8447
aI4225
aa(lp8448
Vjovovich
p8449
aI4226
aa(lp8450
Vbo
p8451
aI4227
aa(lp8452
Vdrinkware
p8453
aI4228
aa(lp8454
Vwildlife
p8455
aI4229
aa(lp8456
Vstraightened
p8457
aI4230
aa(lp8458
Vwrinkled
p8459
aI4231
aa(lp8460
Vharnessed
p8461
aI4232
aa(lp8462
Vopend
p8463
aI4233
aa(lp8464
Vsneaks
p8465
aI4234
aa(lp8466
Vu-
p8467
aI4235
aa(lp8468
Vatlantis
p8469
aI4236
aa(lp8470
Vposter
p8471
aI4237
aa(lp8472
Vatop
p8473
aI4238
aa(lp8474
Vcontinuously
p8475
aI4239
aa(lp8476
Vlabrador
p8477
aI4240
aa(lp8478
Vphantom
p8479
aI4241
aa(lp8480
Vswirl
p8481
aI4242
aa(lp8482
Vsided
p8483
aI4243
aa(lp8484
Vage
p8485
aI4244
aa(lp8486
Vdow
p8487
aI4245
aa(lp8488
Vbeverage
p8489
aI4246
aa(lp8490
Vscratch
p8491
aI4247
aa(lp8492
Vtotem
p8493
aI4248
aa(lp8494
Vseemed
p8495
aI4249
aa(lp8496
Voutwards
p8497
aI4250
aa(lp8498
Vbloody-faced
p8499
aI4251
aa(lp8500
Vathlete
p8501
aI4252
aa(lp8502
Vcopter
p8503
aI4253
aa(lp8504
Vlakadama
p8505
aI4254
aa(lp8506
Vwached
p8507
aI4255
aa(lp8508
Vlei
p8509
aI4256
aa(lp8510
Vgathered
p8511
aI4257
aa(lp8512
Vlet
p8513
aI4258
aa(lp8514
Vengage
p8515
aI4259
aa(lp8516
Vcte
p8517
aI4260
aa(lp8518
Vsurvey
p8519
aI4261
aa(lp8520
Vfirefox
p8521
aI4262
aa(lp8522
Vtools
p8523
aI4263
aa(lp8524
Vzip
p8525
aI4264
aa(lp8526
Veleven
p8527
aI4265
aa(lp8528
Vduplicate
p8529
aI4266
aa(lp8530
Vplaughing
p8531
aI4267
aa(lp8532
Vcasserole
p8533
aI4268
aa(lp8534
Vthis
p8535
aI4269
aa(lp8536
Vchallenge
p8537
aI4270
aa(lp8538
Vwedge
p8539
aI4271
aa(lp8540
Vrollerskated
p8541
aI4272
aa(lp8542
Vbent
p8543
aI4273
aa(lp8544
Vprocess
p8545
aI4274
aa(lp8546
Vlock
p8547
aI4275
aa(lp8548
Vslit
p8549
aI4276
aa(lp8550
Vslip
p8551
aI4277
aa(lp8552
Vshuffled
p8553
aI4278
aa(lp8554
Vdestroying
p8555
aI4279
aa(lp8556
Vswivels
p8557
aI4280
aa(lp8558
Vyellowish
p8559
aI4281
aa(lp8560
Vhalter
p8561
aI4282
aa(lp8562
Vdominos
p8563
aI4283
aa(lp8564
Vtier
p8565
aI4284
aa(lp8566
Vracks
p8567
aI4285
aa(lp8568
Velement
p8569
aI4286
aa(lp8570
Vthigh
p8571
aI4287
aa(lp8572
Vcuttng
p8573
aI4288
aa(lp8574
Vdecal
p8575
aI4289
aa(lp8576
Vdegrees
p8577
aI4290
aa(lp8578
Vtraverses
p8579
aI4291
aa(lp8580
Vbare-handed
p8581
aI4292
aa(lp8582
Vglassed
p8583
aI4293
aa(lp8584
Vscenic
p8585
aI4294
aa(lp8586
Vfrittata
p8587
aI4295
aa(lp8588
Vheated
p8589
aI4296
aa(lp8590
Vsportsman
p8591
aI4297
aa(lp8592
Vbooks
p8593
aI4298
aa(lp8594
Vbunched
p8595
aI4299
aa(lp8596
Vtemps
p8597
aI4300
aa(lp8598
Vsteering
p8599
aI4301
aa(lp8600
Vchilli
p8601
aI4302
aa(lp8602
Vspill
p8603
aI4303
aa(lp8604
Vdavid
p8605
aI4304
aa(lp8606
Vrepeats
p8607
aI4305
aa(lp8608
Vsphaghetti
p8609
aI4306
aa(lp8610
Vspilt
p8611
aI4307
aa(lp8612
Vslced
p8613
aI4308
aa(lp8614
Vbronzing
p8615
aI4309
aa(lp8616
Vlatern
p8617
aI4310
aa(lp8618
Vgoalee
p8619
aI4311
aa(lp8620
Vstars
p8621
aI4312
aa(lp8622
Vcrosswise
p8623
aI4313
aa(lp8624
Vchong
p8625
aI4314
aa(lp8626
Vtrike
p8627
aI4315
aa(lp8628
Vextraordinarily
p8629
aI4316
aa(lp8630
Vdowel
p8631
aI4317
aa(lp8632
Vrollercoaster
p8633
aI4318
aa(lp8634
Vcollecting
p8635
aI4319
aa(lp8636
Vdefending
p8637
aI4320
aa(lp8638
Villuminated
p8639
aI4321
aa(lp8640
Vdemolishes
p8641
aI4322
aa(lp8642
Vkarate-style
p8643
aI4323
aa(lp8644
Vsquawks
p8645
aI4324
aa(lp8646
Vmilla
p8647
aI4325
aa(lp8648
Vindividuls
p8649
aI4326
aa(lp8650
Vsegment
p8651
aI4327
aa(lp8652
Virt
p8653
aI4328
aa(lp8654
Vbring
p8655
aI4329
aa(lp8656
Vmanchester
p8657
aI4330
aa(lp8658
Vsmacks
p8659
aI4331
aa(lp8660
Vjaw
p8661
aI4332
aa(lp8662
Vridint
p8663
aI4333
aa(lp8664
Vpste
p8665
aI4334
aa(lp8666
Vgnaws
p8667
aI4335
aa(lp8668
Vhandle
p8669
aI4336
aa(lp8670
Vlucky
p8671
aI4337
aa(lp8672
Vstufs
p8673
aI4338
aa(lp8674
Vbreaddough
p8675
aI4339
aa(lp8676
Vslanted
p8677
aI4340
aa(lp8678
Vpacked
p8679
aI4341
aa(lp8680
Vdungeon
p8681
aI4342
aa(lp8682
Vbutts
p8683
aI4343
aa(lp8684
Vfigured
p8685
aI4344
aa(lp8686
Vdogsledding
p8687
aI4345
aa(lp8688
Vetc
p8689
aI4346
aa(lp8690
Vvolley
p8691
aI4347
aa(lp8692
Vca
p8693
aI4348
aa(lp8694
Vpounced
p8695
aI4349
aa(lp8696
Vct
p8697
aI4350
aa(lp8698
Vwaste
p8699
aI4351
aa(lp8700
Vmaneuvers
p8701
aI4352
aa(lp8702
V8-balls
p8703
aI4353
aa(lp8704
Vtoasting
p8705
aI4354
aa(lp8706
Vannouncer
p8707
aI4355
aa(lp8708
Vcompressions
p8709
aI4356
aa(lp8710
Vripe
p8711
aI4357
aa(lp8712
Vdog-sledding
p8713
aI4358
aa(lp8714
Vhardware
p8715
aI4359
aa(lp8716
Vskateboarders
p8717
aI4360
aa(lp8718
Vdusk
p8719
aI4361
aa(lp8720
Vforecasts
p8721
aI4362
aa(lp8722
Vfielder
p8723
aI4363
aa(lp8724
Vcolour
p8725
aI4364
aa(lp8726
Vpatterns
p8727
aI4365
aa(lp8728
Vussain
p8729
aI4366
aa(lp8730
Vlathering
p8731
aI4367
aa(lp8732
Vspinner
p8733
aI4368
aa(lp8734
Vlattice
p8735
aI4369
aa(lp8736
Vmarzipan
p8737
aI4370
aa(lp8738
Vcobble
p8739
aI4371
aa(lp8740
Vtick
p8741
aI4372
aa(lp8742
Vcrisp
p8743
aI4373
aa(lp8744
Vhabitat
p8745
aI4374
aa(lp8746
Vtransport
p8747
aI4375
aa(lp8748
Vkangaroom
p8749
aI4376
aa(lp8750
Vstairway
p8751
aI4377
aa(lp8752
Vselecting
p8753
aI4378
aa(lp8754
Viris
p8755
aI4379
aa(lp8756
Vsister
p8757
aI4380
aa(lp8758
Vslayer
p8759
aI4381
aa(lp8760
Vwhistles
p8761
aI4382
aa(lp8762
Vletters
p8763
aI4383
aa(lp8764
Vhousing
p8765
aI4384
aa(lp8766
Vbump
p8767
aI4385
aa(lp8768
Vfunnel
p8769
aI4386
aa(lp8770
Vdescaling
p8771
aI4387
aa(lp8772
Vgrate
p8773
aI4388
aa(lp8774
Vharvester
p8775
aI4389
aa(lp8776
Vgarbs
p8777
aI4390
aa(lp8778
Vnurses
p8779
aI4391
aa(lp8780
Vslowing
p8781
aI4392
aa(lp8782
Vagains
p8783
aI4393
aa(lp8784
Vcutomer
p8785
aI4394
aa(lp8786
Vpenciled
p8787
aI4395
aa(lp8788
Vvein
p8789
aI4396
aa(lp8790
Veyre
p8791
aI4397
aa(lp8792
Vrural
p8793
aI4398
aa(lp8794
Vswirls
p8795
aI4399
aa(lp8796
Vspit-up
p8797
aI4400
aa(lp8798
Vdefecating
p8799
aI4401
aa(lp8800
Vsped
p8801
aI4402
aa(lp8802
Vmanis
p8803
aI4403
aa(lp8804
Voion
p8805
aI4404
aa(lp8806
Vpince
p8807
aI4405
aa(lp8808
Vkithen
p8809
aI4406
aa(lp8810
Vtriumph
p8811
aI4407
aa(lp8812
Vchew
p8813
aI4408
aa(lp8814
Vhors
p8815
aI4409
aa(lp8816
Vphonen
p8817
aI4410
aa(lp8818
Vserrated
p8819
aI4411
aa(lp8820
Vnakhi
p8821
aI4412
aa(lp8822
Vfestive
p8823
aI4413
aa(lp8824
Vguiter
p8825
aI4414
aa(lp8826
Vbookcase
p8827
aI4415
aa(lp8828
Vcelebration
p8829
aI4416
aa(lp8830
Vbrowsing
p8831
aI4417
aa(lp8832
Vplot
p8833
aI4418
aa(lp8834
Vbundles
p8835
aI4419
aa(lp8836
Vmoonwalking
p8837
aI4420
aa(lp8838
Vpierced
p8839
aI4421
aa(lp8840
Vbunnies
p8841
aI4422
aa(lp8842
Vcrest
p8843
aI4423
aa(lp8844
Vworm
p8845
aI4424
aa(lp8846
Vcuddly
p8847
aI4425
aa(lp8848
Vcuddle
p8849
aI4426
aa(lp8850
Vingredents
p8851
aI4427
aa(lp8852
Vmechanic
p8853
aI4428
aa(lp8854
Velbow
p8855
aI4429
aa(lp8856
Vcrackers
p8857
aI4430
aa(lp8858
Vmotocycle
p8859
aI4431
aa(lp8860
Vfondant
p8861
aI4432
aa(lp8862
Vvoicing
p8863
aI4433
aa(lp8864
Vlat
p8865
aI4434
aa(lp8866
Vgreek
p8867
aI4435
aa(lp8868
Vdiapered
p8869
aI4436
aa(lp8870
Vorder
p8871
aI4437
aa(lp8872
Vtricked
p8873
aI4438
aa(lp8874
Vflute-like
p8875
aI4439
aa(lp8876
Vpedastal
p8877
aI4440
aa(lp8878
Vbrough
p8879
aI4441
aa(lp8880
Vascends
p8881
aI4442
aa(lp8882
Valternately
p8883
aI4443
aa(lp8884
Vl
p8885
aI4444
aa(lp8886
V\u092b\u0941\u091f\u092c\u094b\u0932
p8887
aI4445
aa(lp8888
Vlifter
p8889
aI4446
aa(lp8890
Vcantalopue
p8891
aI4447
aa(lp8892
Vbottles-milk
p8893
aI4448
aa(lp8894
Vbarrier
p8895
aI4449
aa(lp8896
Vforcibly
p8897
aI4450
aa(lp8898
Vdogg
p8899
aI4451
aa(lp8900
Vmessing
p8901
aI4452
aa(lp8902
Vkung-fu
p8903
aI4453
aa(lp8904
Vtackled
p8905
aI4454
aa(lp8906
Vvegatables
p8907
aI4455
aa(lp8908
Vgiraffes
p8909
aI4456
aa(lp8910
Vsportsmen
p8911
aI4457
aa(lp8912
Vladen
p8913
aI4458
aa(lp8914
Vgravy
p8915
aI4459
aa(lp8916
Vcircled
p8917
aI4460
aa(lp8918
V'street
p8919
aI4461
aa(lp8920
Vlense
p8921
aI4462
aa(lp8922
Vtoast
p8923
aI4463
aa(lp8924
Vforaging
p8925
aI4464
aa(lp8926
Vblading
p8927
aI4465
aa(lp8928
Vsews
p8929
aI4466
aa(lp8930
Vtracers
p8931
aI4467
aa(lp8932
Vbody-boarding
p8933
aI4468
aa(lp8934
Vnasty
p8935
aI4469
aa(lp8936
Vbreak-dancing
p8937
aI4470
aa(lp8938
Vscrubber
p8939
aI4471
aa(lp8940
Vsteal
p8941
aI4472
aa(lp8942
Vscrubbed
p8943
aI4473
aa(lp8944
Vclaymation
p8945
aI4474
aa(lp8946
Vtechniques
p8947
aI4475
aa(lp8948
Vafloat
p8949
aI4476
aa(lp8950
Vencounters
p8951
aI4477
aa(lp8952
Vrope-stage
p8953
aI4478
aa(lp8954
Vmoonwalks
p8955
aI4479
aa(lp8956
Vpackages
p8957
aI4480
aa(lp8958
Vreceiver
p8959
aI4481
aa(lp8960
Vgarnishing
p8961
aI4482
aa(lp8962
Vheadlights
p8963
aI4483
aa(lp8964
Vrakes
p8965
aI4484
aa(lp8966
Vattacker
p8967
aI4485
aa(lp8968
Vlauncher
p8969
aI4486
aa(lp8970
Vaim
p8971
aI4487
aa(lp8972
Vtraditonal
p8973
aI4488
aa(lp8974
Vaid
p8975
aI4489
aa(lp8976
Vlaunched
p8977
aI4490
aa(lp8978
Vmistake
p8979
aI4491
aa(lp8980
Vlaughting
p8981
aI4492
aa(lp8982
Vdrawers
p8983
aI4493
aa(lp8984
Vplated
p8985
aI4494
aa(lp8986
Vdescend
p8987
aI4495
aa(lp8988
Vincorrectly
p8989
aI4496
aa(lp8990
Vdocuments
p8991
aI4497
aa(lp8992
Vhispanic
p8993
aI4498
aa(lp8994
Vgyrating
p8995
aI4499
aa(lp8996
Voff-camera
p8997
aI4500
aa(lp8998
Vclamped
p8999
aI4501
aa(lp9000
Vtransformer
p9001
aI4502
aa(lp9002
Vlineman
p9003
aI4503
aa(lp9004
Vflooring
p9005
aI4504
aa(lp9006
Vcigarette-lighter
p9007
aI4505
aa(lp9008
Vphotographed
p9009
aI4506
aa(lp9010
Vcaps
p9011
aI4507
aa(lp9012
Vcape
p9013
aI4508
aa(lp9014
Vflavoring
p9015
aI4509
aa(lp9016
Vsecurity
p9017
aI4510
aa(lp9018
Vcooled
p9019
aI4511
aa(lp9020
Vescaltor
p9021
aI4512
aa(lp9022
Vlashes
p9023
aI4513
aa(lp9024
Vtramplines
p9025
aI4514
aa(lp9026
Vborn
p9027
aI4515
aa(lp9028
Vwoamn
p9029
aI4516
aa(lp9030
Vbanked
p9031
aI4517
aa(lp9032
Vnewspapers
p9033
aI4518
aa(lp9034
Vsizzling
p9035
aI4519
aa(lp9036
Vsauted
p9037
aI4520
aa(lp9038
Vbitting
p9039
aI4521
aa(lp9040
Vbalanced
p9041
aI4522
aa(lp9042
Vcompression
p9043
aI4523
aa(lp9044
Vlowest
p9045
aI4524
aa(lp9046
Vbettie
p9047
aI4525
aa(lp9048
Vcrys
p9049
aI4526
aa(lp9050
Vmole
p9051
aI4527
aa(lp9052
Vinterested
p9053
aI4528
aa(lp9054
Vfrolic
p9055
aI4529
aa(lp9056
Vjuicer
p9057
aI4530
aa(lp9058
Vwelcome
p9059
aI4531
aa(lp9060
Vpaces
p9061
aI4532
aa(lp9062
Vdomination
p9063
aI4533
aa(lp9064
Vbeds
p9065
aI4534
aa(lp9066
Vanimator
p9067
aI4535
aa(lp9068
Vswitched
p9069
aI4536
aa(lp9070
Vseargeant
p9071
aI4537
aa(lp9072
Vflash
p9073
aI4538
aa(lp9074
Vthighs
p9075
aI4539
aa(lp9076
Vrhythm
p9077
aI4540
aa(lp9078
Vsoother
p9079
aI4541
aa(lp9080
Vpull-tab
p9081
aI4542
aa(lp9082
Vbrows
p9083
aI4543
aa(lp9084
Vpresented
p9085
aI4544
aa(lp9086
Vpuppeteer
p9087
aI4545
aa(lp9088
Vevades
p9089
aI4546
aa(lp9090
Vwoven
p9091
aI4547
aa(lp9092
Vyolks
p9093
aI4548
aa(lp9094
Vprairie
p9095
aI4549
aa(lp9096
V\u201coh
p9097
aI4550
aa(lp9098
Vpenetrated
p9099
aI4551
aa(lp9100
Vwolfs
p9101
aI4552
aa(lp9102
Vpeeld
p9103
aI4553
aa(lp9104
Vsaluting
p9105
aI4554
aa(lp9106
Vsupporting
p9107
aI4555
aa(lp9108
Vchainlink
p9109
aI4556
aa(lp9110
Vsieve
p9111
aI4557
aa(lp9112
Vchange
p9113
aI4558
aa(lp9114
Vpillow
p9115
aI4559
aa(lp9116
Vuphill
p9117
aI4560
aa(lp9118
Vfirearm
p9119
aI4561
aa(lp9120
Vmarket
p9121
aI4562
aa(lp9122
Vstreetcar
p9123
aI4563
aa(lp9124
Vshaken
p9125
aI4564
aa(lp9126
Vselects
p9127
aI4565
aa(lp9128
Vtowers
p9129
aI4566
aa(lp9130
Vslinky
p9131
aI4567
aa(lp9132
Vbowler
p9133
aI4568
aa(lp9134
Vskaters
p9135
aI4569
aa(lp9136
Vhalave
p9137
aI4570
aa(lp9138
Vchip
p9139
aI4571
aa(lp9140
Vpicnic-like
p9141
aI4572
aa(lp9142
Vanteater
p9143
aI4573
aa(lp9144
Vunrealistically
p9145
aI4574
aa(lp9146
Vurinated
p9147
aI4575
aa(lp9148
Varmies
p9149
aI4576
aa(lp9150
Vpush-up
p9151
aI4577
aa(lp9152
Vdisgusted
p9153
aI4578
aa(lp9154
Vproduce
p9155
aI4579
aa(lp9156
Vhotplate
p9157
aI4580
aa(lp9158
Vcrepe
p9159
aI4581
aa(lp9160
Vwhenever
p9161
aI4582
aa(lp9162
Vcorona
p9163
aI4583
aa(lp9164
Vperfoming
p9165
aI4584
aa(lp9166
Vcolt
p9167
aI4585
aa(lp9168
Vhaircut
p9169
aI4586
aa(lp9170
Vcongregating
p9171
aI4587
aa(lp9172
Vcurly
p9173
aI4588
aa(lp9174
Vholing
p9175
aI4589
aa(lp9176
Vcurls
p9177
aI4590
aa(lp9178
Vstyrofoam
p9179
aI4591
aa(lp9180
Vshowered
p9181
aI4592
aa(lp9182
Vfeats
p9183
aI4593
aa(lp9184
V\u092c\u0940\u091a\u092e\u0947
p9185
aI4594
aa(lp9186
Vrockface
p9187
aI4595
aa(lp9188
Vtails
p9189
aI4596
aa(lp9190
Vprunes
p9191
aI4597
aa(lp9192
Vstreaks
p9193
aI4598
aa(lp9194
Vintrigued
p9195
aI4599
aa(lp9196
Vbursts
p9197
aI4600
aa(lp9198
Vhurried
p9199
aI4601
aa(lp9200
Vez
p9201
aI4602
aa(lp9202
Vkanu
p9203
aI4603
aa(lp9204
Vamusement
p9205
aI4604
aa(lp9206
Ver
p9207
aI4605
aa(lp9208
Vnavigating
p9209
aI4606
aa(lp9210
Vambushing
p9211
aI4607
aa(lp9212
Vocra
p9213
aI4608
aa(lp9214
Vlugging
p9215
aI4609
aa(lp9216
Vpompons
p9217
aI4610
aa(lp9218
Vdirectly
p9219
aI4611
aa(lp9220
Vsheep
p9221
aI4612
aa(lp9222
Vsheer
p9223
aI4613
aa(lp9224
Vappreciates
p9225
aI4614
aa(lp9226
Vthai
p9227
aI4615
aa(lp9228
Vbrother`s
p9229
aI4616
aa(lp9230
Vapples
p9231
aI4617
aa(lp9232
Vsaute
p9233
aI4618
aa(lp9234
Vlumpy
p9235
aI4619
aa(lp9236
Vterrific
p9237
aI4620
aa(lp9238
Vbreakdances
p9239
aI4621
aa(lp9240
Vtelephones
p9241
aI4622
aa(lp9242
Vtopping
p9243
aI4623
aa(lp9244
Vamerica
p9245
aI4624
aa(lp9246
V]
p9247
aI4625
aa(lp9248
Vwackes
p9249
aI4626
aa(lp9250
Vfirehat
p9251
aI4627
aa(lp9252
Vgroung
p9253
aI4628
aa(lp9254
V\u0932\u094b\u0917\u094b\u0915\u0947
p9255
aI4629
aa(lp9256
Vfifth
p9257
aI4630
aa(lp9258
Vsnack
p9259
aI4631
aa(lp9260
Vstain
p9261
aI4632
aa(lp9262
Vpices
p9263
aI4633
aa(lp9264
Vburst
p9265
aI4634
aa(lp9266
Vloudspeaker
p9267
aI4635
aa(lp9268
Vfascinated
p9269
aI4636
aa(lp9270
V3
p9271
aI4637
aa(lp9272
Vwhipped
p9273
aI4638
aa(lp9274
Vturle
p9275
aI4639
aa(lp9276
Vintsruments
p9277
aI4640
aa(lp9278
Vattaches
p9279
aI4641
aa(lp9280
Vbicyling
p9281
aI4642
aa(lp9282
Vhaunch
p9283
aI4643
aa(lp9284
Vdune-buggy
p9285
aI4644
aa(lp9286
Vwreaths
p9287
aI4645
aa(lp9288
Vsledding
p9289
aI4646
aa(lp9290
Vjerks
p9291
aI4647
aa(lp9292
Vjerky
p9293
aI4648
aa(lp9294
Vmooing
p9295
aI4649
aa(lp9296
Vfours
p9297
aI4650
aa(lp9298
Vpram
p9299
aI4651
aa(lp9300
Vperson'a
p9301
aI4652
aa(lp9302
Vroughing
p9303
aI4653
aa(lp9304
Vspooned
p9305
aI4654
aa(lp9306
Vcommander
p9307
aI4655
aa(lp9308
Vstewardess
p9309
aI4656
aa(lp9310
Vrotated
p9311
aI4657
aa(lp9312
Vmoneky
p9313
aI4658
aa(lp9314
Vmedia
p9315
aI4659
aa(lp9316
Vmedic
p9317
aI4660
aa(lp9318
Vangered
p9319
aI4661
aa(lp9320
Vstreams
p9321
aI4662
aa(lp9322
Vfoal
p9323
aI4663
aa(lp9324
Vfoam
p9325
aI4664
aa(lp9326
Vsevers
p9327
aI4665
aa(lp9328
Vcharges
p9329
aI4666
aa(lp9330
Vlivestock
p9331
aI4667
aa(lp9332
Vshouts
p9333
aI4668
aa(lp9334
Vjellyroll
p9335
aI4669
aa(lp9336
Vdeath
p9337
aI4670
aa(lp9338
Vmirrored
p9339
aI4671
aa(lp9340
Vdesktop
p9341
aI4672
aa(lp9342
Vtreatment
p9343
aI4673
aa(lp9344
Vpropped
p9345
aI4674
aa(lp9346
Vspectacular
p9347
aI4675
aa(lp9348
Vpsp
p9349
aI4676
aa(lp9350
Vfryer
p9351
aI4677
aa(lp9352
Vdislodges
p9353
aI4678
aa(lp9354
Vhacks
p9355
aI4679
aa(lp9356
Vrecorded
p9357
aI4680
aa(lp9358
Vforks
p9359
aI4681
aa(lp9360
Vwelsch
p9361
aI4682
aa(lp9362
Vwheat
p9363
aI4683
aa(lp9364
Vpylons
p9365
aI4684
aa(lp9366
Vsixth
p9367
aI4685
aa(lp9368
Vstrained
p9369
aI4686
aa(lp9370
Vseducing
p9371
aI4687
aa(lp9372
Vassemble
p9373
aI4688
aa(lp9374
Vcentral
p9375
aI4689
aa(lp9376
V'o
p9377
aI4690
aa(lp9378
Vrinspeed
p9379
aI4691
aa(lp9380
Vresuscitate
p9381
aI4692
aa(lp9382
Vcate
p9383
aI4693
aa(lp9384
Vwoman`s
p9385
aI4694
aa(lp9386
Vbrownish-gold
p9387
aI4695
aa(lp9388
Vpostures
p9389
aI4696
aa(lp9390
Vbucked
p9391
aI4697
aa(lp9392
Vsubdue
p9393
aI4698
aa(lp9394
Vmover
p9395
aI4699
aa(lp9396
Vhurtles
p9397
aI4700
aa(lp9398
Vforcing
p9399
aI4701
aa(lp9400
Vjuic
p9401
aI4702
aa(lp9402
Vwields
p9403
aI4703
aa(lp9404
Vchords
p9405
aI4704
aa(lp9406
Vsmooch
p9407
aI4705
aa(lp9408
Vcored
p9409
aI4706
aa(lp9410
Vembracing
p9411
aI4707
aa(lp9412
Voutlining
p9413
aI4708
aa(lp9414
Vsince
p9415
aI4709
aa(lp9416
Vmonth
p9417
aI4710
aa(lp9418
Vmessy
p9419
aI4711
aa(lp9420
Vreligious
p9421
aI4712
aa(lp9422
Vicons
p9423
aI4713
aa(lp9424
Vsurya
p9425
aI4714
aa(lp9426
Vbombarded
p9427
aI4715
aa(lp9428
Vfrankenstein
p9429
aI4716
aa(lp9430
Vliquidized
p9431
aI4717
aa(lp9432
Vgreen-piece
p9433
aI4718
aa(lp9434
Vring-tailed
p9435
aI4719
aa(lp9436
Vplayyed
p9437
aI4720
aa(lp9438
Vtussle
p9439
aI4721
aa(lp9440
Vthickness
p9441
aI4722
aa(lp9442
Vloose
p9443
aI4723
aa(lp9444
Vtusker
p9445
aI4724
aa(lp9446
Vanswers
p9447
aI4725
aa(lp9448
Vstraightener
p9449
aI4726
aa(lp9450
Vvegetarian
p9451
aI4727
aa(lp9452
Vcreepy
p9453
aI4728
aa(lp9454
Vhogs
p9455
aI4729
aa(lp9456
Vchunky
p9457
aI4730
aa(lp9458
Vteach
p9459
aI4731
aa(lp9460
Vlowering
p9461
aI4732
aa(lp9462
Vsweeps
p9463
aI4733
aa(lp9464
Vpeals
p9465
aI4734
aa(lp9466
Vukelele
p9467
aI4735
aa(lp9468
Vpinscher
p9469
aI4736
aa(lp9470
Vmenus
p9471
aI4737
aa(lp9472
Vtumbled
p9473
aI4738
aa(lp9474
Vpurring
p9475
aI4739
aa(lp9476
Vunbaked
p9477
aI4740
aa(lp9478
Vhorizontal
p9479
aI4741
aa(lp9480
Vegs
p9481
aI4742
aa(lp9482
Vscaring
p9483
aI4743
aa(lp9484
Vchicks
p9485
aI4744
aa(lp9486
Vhelp
p9487
aI4745
aa(lp9488
Vchicke
p9489
aI4746
aa(lp9490
Vtumbler
p9491
aI4747
aa(lp9492
Vtransplanting
p9493
aI4748
aa(lp9494
Vpredatory
p9495
aI4749
aa(lp9496
Vsketches
p9497
aI4750
aa(lp9498
Vsoapy
p9499
aI4751
aa(lp9500
Vsquishy
p9501
aI4752
aa(lp9502
Vjumproping
p9503
aI4753
aa(lp9504
Vtravels
p9505
aI4754
aa(lp9506
Voutrun
p9507
aI4755
aa(lp9508
Vmaths
p9509
aI4756
aa(lp9510
Vcheering
p9511
aI4757
aa(lp9512
Vautomobile
p9513
aI4758
aa(lp9514
Vblush
p9515
aI4759
aa(lp9516
Vinterviews
p9517
aI4760
aa(lp9518
Vponies
p9519
aI4761
aa(lp9520
Vreflected
p9521
aI4762
aa(lp9522
Vswarm
p9523
aI4763
aa(lp9524
Vpinned
p9525
aI4764
aa(lp9526
Vhundred
p9527
aI4765
aa(lp9528
Vbumba
p9529
aI4766
aa(lp9530
Vsquirts
p9531
aI4767
aa(lp9532
Vbowel
p9533
aI4768
aa(lp9534
Vperformers
p9535
aI4769
aa(lp9536
Vbride
p9537
aI4770
aa(lp9538
Vkart
p9539
aI4771
aa(lp9540
Vjuicy
p9541
aI4772
aa(lp9542
Vecstatically
p9543
aI4773
aa(lp9544
Vcontest
p9545
aI4774
aa(lp9546
Vofficers
p9547
aI4775
aa(lp9548
Vcutsa
p9549
aI4776
aa(lp9550
Vswallowing
p9551
aI4777
aa(lp9552
Vunstuck
p9553
aI4778
aa(lp9554
Vx-box
p9555
aI4779
aa(lp9556
Vfistful
p9557
aI4780
aa(lp9558
Vrhe
p9559
aI4781
aa(lp9560
Vtubes
p9561
aI4782
aa(lp9562
Vtuber
p9563
aI4783
aa(lp9564
Vhips
p9565
aI4784
aa(lp9566
Vgiggles
p9567
aI4785
aa(lp9568
Vmeticulously
p9569
aI4786
aa(lp9570
Vgiggled
p9571
aI4787
aa(lp9572
Vringers
p9573
aI4788
aa(lp9574
Vflesh
p9575
aI4789
aa(lp9576
Vabulance
p9577
aI4790
aa(lp9578
V3/4
p9579
aI4791
aa(lp9580
Vtoliet
p9581
aI4792
aa(lp9582
Vscanning
p9583
aI4793
aa(lp9584
Vknive
p9585
aI4794
aa(lp9586
Vinvisible
p9587
aI4795
aa(lp9588
Vzipper
p9589
aI4796
aa(lp9590
Vvegetable-looking
p9591
aI4797
aa(lp9592
Vshish-kabobs
p9593
aI4798
aa(lp9594
Varrest
p9595
aI4799
aa(lp9596
Vyakati
p9597
aI4800
aa(lp9598
Vbiking
p9599
aI4801
aa(lp9600
Vguide
p9601
aI4802
aa(lp9602
Vmakeshift
p9603
aI4803
aa(lp9604
Verectly
p9605
aI4804
aa(lp9606
Vceremonious
p9607
aI4805
aa(lp9608
Vunrolls
p9609
aI4806
aa(lp9610
Vred-tinted
p9611
aI4807
aa(lp9612
Vroasted
p9613
aI4808
aa(lp9614
Vscrunched
p9615
aI4809
aa(lp9616
Vritualistically
p9617
aI4810
aa(lp9618
V...
p9619
aI4811
aa(lp9620
Vtranslucent
p9621
aI4812
aa(lp9622
Vsignal
p9623
aI4813
aa(lp9624
Vsifts
p9625
aI4814
aa(lp9626
Vpopular
p9627
aI4815
aa(lp9628
Vsketch
p9629
aI4816
aa(lp9630
Vyolk
p9631
aI4817
aa(lp9632
Vblow-up
p9633
aI4818
aa(lp9634
Vpounding
p9635
aI4819
aa(lp9636
Vhi-five
p9637
aI4820
aa(lp9638
Vrub
p9639
aI4821
aa(lp9640
Vcirle
p9641
aI4822
aa(lp9642
Vnelly
p9643
aI4823
aa(lp9644
Vportico
p9645
aI4824
aa(lp9646
Vtracing
p9647
aI4825
aa(lp9648
Vcaretaker
p9649
aI4826
aa(lp9650
Vsmells
p9651
aI4827
aa(lp9652
Vharem
p9653
aI4828
aa(lp9654
Vdriverless
p9655
aI4829
aa(lp9656
Vreed
p9657
aI4830
aa(lp9658
Vreel
p9659
aI4831
aa(lp9660
Vcollapses
p9661
aI4832
aa(lp9662
Vcautiously
p9663
aI4833
aa(lp9664
Vsimilar
p9665
aI4834
aa(lp9666
Vhigh-speed
p9667
aI4835
aa(lp9668
Vkidney
p9669
aI4836
aa(lp9670
Vnab
p9671
aI4837
aa(lp9672
Vpolygon
p9673
aI4838
aa(lp9674
Vdogsleds
p9675
aI4839
aa(lp9676
Vnap
p9677
aI4840
aa(lp9678
Vpanday
p9679
aI4841
aa(lp9680
Vsmiles
p9681
aI4842
aa(lp9682
Vcrouching
p9683
aI4843
aa(lp9684
Vdrag
p9685
aI4844
aa(lp9686
Vformal
p9687
aI4845
aa(lp9688
Vboyis
p9689
aI4846
aa(lp9690
Vbleacher
p9691
aI4847
aa(lp9692
Vtoddlerdom
p9693
aI4848
aa(lp9694
Vberries
p9695
aI4849
aa(lp9696
Vunderbrush
p9697
aI4850
aa(lp9698
Vcozily
p9699
aI4851
aa(lp9700
Vasphalt
p9701
aI4852
aa(lp9702
Vjackolantern
p9703
aI4853
aa(lp9704
Vbiten
p9705
aI4854
aa(lp9706
Vtrough
p9707
aI4855
aa(lp9708
Vstiff
p9709
aI4856
aa(lp9710
Vpositions
p9711
aI4857
aa(lp9712
Vbutton
p9713
aI4858
aa(lp9714
Vmichael
p9715
aI4859
aa(lp9716
Vcomforts
p9717
aI4860
aa(lp9718
Vsledghammer
p9719
aI4861
aa(lp9720
Vlotioned
p9721
aI4862
aa(lp9722
Vboots
p9723
aI4863
aa(lp9724
Vcupcakes
p9725
aI4864
aa(lp9726
Vvampire
p9727
aI4865
aa(lp9728
Vplaye
p9729
aI4866
aa(lp9730
Vcommercial
p9731
aI4867
aa(lp9732
Vfocused
p9733
aI4868
aa(lp9734
Vwig
p9735
aI4869
aa(lp9736
Vpenalty
p9737
aI4870
aa(lp9738
Varsineo
p9739
aI4871
aa(lp9740
Vrinding
p9741
aI4872
aa(lp9742
Vstarter
p9743
aI4873
aa(lp9744
Vjustin
p9745
aI4874
aa(lp9746
Vdonut
p9747
aI4875
aa(lp9748
Vescaped
p9749
aI4876
aa(lp9750
Vfarm
p9751
aI4877
aa(lp9752
Votehr
p9753
aI4878
aa(lp9754
Vincluding
p9755
aI4879
aa(lp9756
Vyoungster
p9757
aI4880
aa(lp9758
Vskater
p9759
aI4881
aa(lp9760
Vmanican
p9761
aI4882
aa(lp9762
Vankles
p9763
aI4883
aa(lp9764
Villuminate
p9765
aI4884
aa(lp9766
Vmulticolored
p9767
aI4885
aa(lp9768
Vmeasure
p9769
aI4886
aa(lp9770
Vsecretly
p9771
aI4887
aa(lp9772
Vgridle
p9773
aI4888
aa(lp9774
Vreacts
p9775
aI4889
aa(lp9776
Vundressing
p9777
aI4890
aa(lp9778
Vcompletely
p9779
aI4891
aa(lp9780
Vcorgi
p9781
aI4892
aa(lp9782
Vthree-tiered
p9783
aI4893
aa(lp9784
Vice-cream
p9785
aI4894
aa(lp9786
Vexactly
p9787
aI4895
aa(lp9788
Vclanging
p9789
aI4896
aa(lp9790
Vbieber
p9791
aI4897
aa(lp9792
Vcartoonist
p9793
aI4898
aa(lp9794
Vbeg
p9795
aI4899
aa(lp9796
Vunboxes
p9797
aI4900
aa(lp9798
Vproviding
p9799
aI4901
aa(lp9800
Vsultry
p9801
aI4902
aa(lp9802
Vgrayish
p9803
aI4903
aa(lp9804
Vhand-feeding
p9805
aI4904
aa(lp9806
Vborder
p9807
aI4905
aa(lp9808
Veachother
p9809
aI4906
aa(lp9810
Vupset
p9811
aI4907
aa(lp9812
Vprickly
p9813
aI4908
aa(lp9814
Vemerging
p9815
aI4909
aa(lp9816
Vkiddie
p9817
aI4910
aa(lp9818
Vreactive
p9819
aI4911
aa(lp9820
Vcreamer
p9821
aI4912
aa(lp9822
Ventryway
p9823
aI4913
aa(lp9824
Vmurphey
p9825
aI4914
aa(lp9826
Vjoins
p9827
aI4915
aa(lp9828
Vhardwood
p9829
aI4916
aa(lp9830
Vhalving
p9831
aI4917
aa(lp9832
Vhumans
p9833
aI4918
aa(lp9834
Voperates
p9835
aI4919
aa(lp9836
Vtend
p9837
aI4920
aa(lp9838
Vtyre
p9839
aI4921
aa(lp9840
Vslicks
p9841
aI4922
aa(lp9842
Vtent
p9843
aI4923
aa(lp9844
Vrinses
p9845
aI4924
aa(lp9846
Vsniff
p9847
aI4925
aa(lp9848
Vak-47
p9849
aI4926
aa(lp9850
Vgingers
p9851
aI4927
aa(lp9852
Voanoe
p9853
aI4928
aa(lp9854
Vrehearsed
p9855
aI4929
aa(lp9856
Vkicke
p9857
aI4930
aa(lp9858
Vtexas
p9859
aI4931
aa(lp9860
Vcornering
p9861
aI4932
aa(lp9862
Vflubs
p9863
aI4933
aa(lp9864
Vstairmaster
p9865
aI4934
aa(lp9866
Vtweezed
p9867
aI4935
aa(lp9868
Vparty
p9869
aI4936
aa(lp9870
Vtapped
p9871
aI4937
aa(lp9872
Vfrequently
p9873
aI4938
aa(lp9874
Vsurfboard
p9875
aI4939
aa(lp9876
Vstretchers
p9877
aI4940
aa(lp9878
Vmotorcycling
p9879
aI4941
aa(lp9880
V'my
p9881
aI4942
aa(lp9882
Vmissle
p9883
aI4943
aa(lp9884
Vdais
p9885
aI4944
aa(lp9886
Vlogged
p9887
aI4945
aa(lp9888
Vextends
p9889
aI4946
aa(lp9890
Vfootballer
p9891
aI4947
aa(lp9892
Voar
p9893
aI4948
aa(lp9894
Vhistoric
p9895
aI4949
aa(lp9896
Vunseen
p9897
aI4950
aa(lp9898
Vintersection
p9899
aI4951
aa(lp9900
Vsizes
p9901
aI4952
aa(lp9902
Vcandy
p9903
aI4953
aa(lp9904
Vtablespoons
p9905
aI4954
aa(lp9906
Vpage
p9907
aI4955
aa(lp9908
Vde-scaled
p9909
aI4956
aa(lp9910
Vscuffle
p9911
aI4957
aa(lp9912
Vlibrary
p9913
aI4958
aa(lp9914
Va..man..plays
p9915
aI4959
aa(lp9916
Ve-mail
p9917
aI4960
aa(lp9918
Vreaching
p9919
aI4961
aa(lp9920
Vpersuades
p9921
aI4962
aa(lp9922
Vrecognized
p9923
aI4963
aa(lp9924
Vtoppings
p9925
aI4964
aa(lp9926
Veatables
p9927
aI4965
aa(lp9928
Vbeign
p9929
aI4966
aa(lp9930
Vreptile
p9931
aI4967
aa(lp9932
Vpistols
p9933
aI4968
aa(lp9934
Vlouvered
p9935
aI4969
aa(lp9936
Vartists
p9937
aI4970
aa(lp9938
Vdogfood
p9939
aI4971
aa(lp9940
Vastro
p9941
aI4972
aa(lp9942
Vtissues
p9943
aI4973
aa(lp9944
Vndog
p9945
aI4974
aa(lp9946
Vtwist
p9947
aI4975
aa(lp9948
V\u092a\u0948\u0930
p9949
aI4976
aa(lp9950
Vstay
p9951
aI4977
aa(lp9952
Vo'lantern
p9953
aI4978
aa(lp9954
Vshopped
p9955
aI4979
aa(lp9956
Vmackerel
p9957
aI4980
aa(lp9958
Vguinna
p9959
aI4981
aa(lp9960
Vwhose
p9961
aI4982
aa(lp9962
Vswab
p9963
aI4983
aa(lp9964
Vtremors
p9965
aI4984
aa(lp9966
Vbays
p9967
aI4985
aa(lp9968
Vtrousers
p9969
aI4986
aa(lp9970
Vlongways
p9971
aI4987
aa(lp9972
Vfists
p9973
aI4988
aa(lp9974
Vconvenience
p9975
aI4989
aa(lp9976
Veven
p9977
aI4990
aa(lp9978
Vspouses
p9979
aI4991
aa(lp9980
Vtrapping
p9981
aI4992
aa(lp9982
Vwreck
p9983
aI4993
aa(lp9984
Vconfetti-like
p9985
aI4994
aa(lp9986
Vjoin
p9987
aI4995
aa(lp9988
Vbicycle..
p9989
aI4996
aa(lp9990
Vactive
p9991
aI4997
aa(lp9992
V100
p9993
aI4998
aa(lp9994
Vtapes
p9995
aI4999
aa(lp9996
Vjams
p9997
aI5000
aa(lp9998
Vrests
p9999
aI5001
aa(lp10000
Vpiercing
p10001
aI5002
aa(lp10002
Vice-cubes
p10003
aI5003
aa(lp10004
Vguests
p10005
aI5004
aa(lp10006
Vuncorking
p10007
aI5005
aa(lp10008
Vwarp
p10009
aI5006
aa(lp10010
Valigned
p10011
aI5007
aa(lp10012
Vdefecated
p10013
aI5008
aa(lp10014
Vdefecates
p10015
aI5009
aa(lp10016
Vsizzles
p10017
aI5010
aa(lp10018
Vblips
p10019
aI5011
aa(lp10020
Vpoint
p10021
aI5012
aa(lp10022
Vadvancing
p10023
aI5013
aa(lp10024
Vsideline
p10025
aI5014
aa(lp10026
Vamazing
p10027
aI5015
aa(lp10028
Vattempt
p10029
aI5016
aa(lp10030
Vgurneys
p10031
aI5017
aa(lp10032
Vdribled
p10033
aI5018
aa(lp10034
Vovertakes
p10035
aI5019
aa(lp10036
Vunfolds
p10037
aI5020
aa(lp10038
V\u0916\u0947\u0932\u093e
p10039
aI5021
aa(lp10040
Vwindshield
p10041
aI5022
aa(lp10042
Vpersonal
p10043
aI5023
aa(lp10044
Vsoaking
p10045
aI5024
aa(lp10046
Vcarve
p10047
aI5025
aa(lp10048
Vworkout
p10049
aI5026
aa(lp10050
Vleaner
p10051
aI5027
aa(lp10052
Varrested
p10053
aI5028
aa(lp10054
Vmounts
p10055
aI5029
aa(lp10056
Vbone
p10057
aI5030
aa(lp10058
Vcalmly
p10059
aI5031
aa(lp10060
Vdurability
p10061
aI5032
aa(lp10062
Vdawn
p10063
aI5033
aa(lp10064
Vcontent
p10065
aI5034
aa(lp10066
Vdrivong
p10067
aI5035
aa(lp10068
Vsurprise
p10069
aI5036
aa(lp10070
Vflows
p10071
aI5037
aa(lp10072
Vventriloquy
p10073
aI5038
aa(lp10074
Vcomforted
p10075
aI5039
aa(lp10076
Vdisappearing
p10077
aI5040
aa(lp10078
Vhood
p10079
aI5041
aa(lp10080
Vboating
p10081
aI5042
aa(lp10082
Vmatter
p10083
aI5043
aa(lp10084
Vsilly
p10085
aI5044
aa(lp10086
Vextracting
p10087
aI5045
aa(lp10088
Vgutar
p10089
aI5046
aa(lp10090
Vbarehands
p10091
aI5047
aa(lp10092
Vspindles
p10093
aI5048
aa(lp10094
Vseem
p10095
aI5049
aa(lp10096
Vmint
p10097
aI5050
aa(lp10098
Vtells
p10099
aI5051
aa(lp10100
Vchees
p10101
aI5052
aa(lp10102
Vscaped
p10103
aI5053
aa(lp10104
Vwrists
p10105
aI5054
aa(lp10106
Vannoyed
p10107
aI5055
aa(lp10108
Vdeftly
p10109
aI5056
aa(lp10110
Vseadoo
p10111
aI5057
aa(lp10112
Vjudges
p10113
aI5058
aa(lp10114
Vbobs
p10115
aI5059
aa(lp10116
Vtiled
p10117
aI5060
aa(lp10118
Vbay
p10119
aI5061
aa(lp10120
Vsoftly
p10121
aI5062
aa(lp10122
Vtroop
p10123
aI5063
aa(lp10124
Vbak
p10125
aI5064
aa(lp10126
Vsubject
p10127
aI5065
aa(lp10128
Vsaid
p10129
aI5066
aa(lp10130
Vshaved
p10131
aI5067
aa(lp10132
Vartificial
p10133
aI5068
aa(lp10134
Vnarrates
p10135
aI5069
aa(lp10136
Vshaves
p10137
aI5070
aa(lp10138
Vhorsemen
p10139
aI5071
aa(lp10140
Vwandering
p10141
aI5072
aa(lp10142
Vpeddling
p10143
aI5073
aa(lp10144
Vwalkign
p10145
aI5074
aa(lp10146
Vconfronted
p10147
aI5075
aa(lp10148
Vdrilled
p10149
aI5076
aa(lp10150
Vinterest
p10151
aI5077
aa(lp10152
Ventered
p10153
aI5078
aa(lp10154
Vidol
p10155
aI5079
aa(lp10156
Vnutshells
p10157
aI5080
aa(lp10158
Vugly
p10159
aI5081
aa(lp10160
Vanchor
p10161
aI5082
aa(lp10162
Vfaked
p10163
aI5083
aa(lp10164
Vgrown
p10165
aI5084
aa(lp10166
Vshimmering
p10167
aI5085
aa(lp10168
Vbottled
p10169
aI5086
aa(lp10170
Vfailing
p10171
aI5087
aa(lp10172
Vdrowsily
p10173
aI5088
aa(lp10174
Voutmaneuvering
p10175
aI5089
aa(lp10176
Vteether
p10177
aI5090
aa(lp10178
Vmeatn
p10179
aI5091
aa(lp10180
Vpillar
p10181
aI5092
aa(lp10182
Vdeal
p10183
aI5093
aa(lp10184
Vformulas
p10185
aI5094
aa(lp10186
Vwok-like
p10187
aI5095
aa(lp10188
Vpain
p10189
aI5096
aa(lp10190
Vsleigh
p10191
aI5097
aa(lp10192
Vbolt
p10193
aI5098
aa(lp10194
Vautomatically
p10195
aI5099
aa(lp10196
Vfrightened
p10197
aI5100
aa(lp10198
Vinspected
p10199
aI5101
aa(lp10200
Vprevents
p10201
aI5102
aa(lp10202
Vhorrifying
p10203
aI5103
aa(lp10204
Vhurriedly
p10205
aI5104
aa(lp10206
Vabusing
p10207
aI5105
aa(lp10208
Vclassic
p10209
aI5106
aa(lp10210
Vshimmied
p10211
aI5107
aa(lp10212
Vmarinated
p10213
aI5108
aa(lp10214
Vlocality
p10215
aI5109
aa(lp10216
Vhanded
p10217
aI5110
aa(lp10218
Vgarland
p10219
aI5111
aa(lp10220
Vdies
p10221
aI5112
aa(lp10222
Vauthorities
p10223
aI5113
aa(lp10224
Vstripping
p10225
aI5114
aa(lp10226
Vrelieve
p10227
aI5115
aa(lp10228
Vwater-jug
p10229
aI5116
aa(lp10230
Vskii
p10231
aI5117
aa(lp10232
Vpeole
p10233
aI5118
aa(lp10234
Vmill
p10235
aI5119
aa(lp10236
Vfather
p10237
aI5120
aa(lp10238
Vreptiles
p10239
aI5121
aa(lp10240
Vsmartphone
p10241
aI5122
aa(lp10242
Vforked
p10243
aI5123
aa(lp10244
Vstaples
p10245
aI5124
aa(lp10246
Vlimes
p10247
aI5125
aa(lp10248
Vdig
p10249
aI5126
aa(lp10250
Vitem
p10251
aI5127
aa(lp10252
Vdip
p10253
aI5128
aa(lp10254
Vshave
p10255
aI5129
aa(lp10256
V\u0932\u0921\u093c\u0915\u093e
p10257
aI5130
aa(lp10258
Vgrowls
p10259
aI5131
aa(lp10260
Vscampering
p10261
aI5132
aa(lp10262
Vmussels
p10263
aI5133
aa(lp10264
Vthrashes
p10265
aI5134
aa(lp10266
Vbattling
p10267
aI5135
aa(lp10268
Vbot
p10269
aI5136
aa(lp10270
Vmassage
p10271
aI5137
aa(lp10272
Vsaki
p10273
aI5138
aa(lp10274
Vtroops
p10275
aI5139
aa(lp10276
Vinsides
p10277
aI5140
aa(lp10278
Vstenographers
p10279
aI5141
aa(lp10280
Vyoghurt
p10281
aI5142
aa(lp10282
Vcheckout
p10283
aI5143
aa(lp10284
Vsharing
p10285
aI5144
aa(lp10286
Vemoting
p10287
aI5145
aa(lp10288
Vfreestyle
p10289
aI5146
aa(lp10290
Vcapturing
p10291
aI5147
aa(lp10292
Vwalled
p10293
aI5148
aa(lp10294
Vavoiding
p10295
aI5149
aa(lp10296
Vsous
p10297
aI5150
aa(lp10298
Vsour
p10299
aI5151
aa(lp10300
V\u090f\u0915
p10301
aI5152
aa(lp10302
Varrive
p10303
aI5153
aa(lp10304
Vswimmingpool
p10305
aI5154
aa(lp10306
Vscramblers
p10307
aI5155
aa(lp10308
Vmap
p10309
aI5156
aa(lp10310
Vstaying
p10311
aI5157
aa(lp10312
Vstrokes
p10313
aI5158
aa(lp10314
Vgelatin
p10315
aI5159
aa(lp10316
Voutline
p10317
aI5160
aa(lp10318
Vmaybe
p10319
aI5161
aa(lp10320
Vstew-sized
p10321
aI5162
aa(lp10322
Vswitch
p10323
aI5163
aa(lp10324
Vcute
p10325
aI5164
aa(lp10326
Vmotorcylist
p10327
aI5165
aa(lp10328
Vterrace
p10329
aI5166
aa(lp10330
Vsmoothie
p10331
aI5167
aa(lp10332
Vmail
p10333
aI5168
aa(lp10334
Vmain
p10335
aI5169
aa(lp10336
Vviews
p10337
aI5170
aa(lp10338
Vkilled
p10339
aI5171
aa(lp10340
Vfudge
p10341
aI5172
aa(lp10342
Vshowcasing
p10343
aI5173
aa(lp10344
Vbookshop
p10345
aI5174
aa(lp10346
Velephante
p10347
aI5175
aa(lp10348
Vmorning
p10349
aI5176
aa(lp10350
Vspiking
p10351
aI5177
aa(lp10352
Vhomme
p10353
aI5178
aa(lp10354
Vjackson
p10355
aI5179
aa(lp10356
Vleeks
p10357
aI5180
aa(lp10358
Vcorrect
p10359
aI5181
aa(lp10360
Vpumping
p10361
aI5182
aa(lp10362
Vcough
p10363
aI5183
aa(lp10364
Vdrizzling
p10365
aI5184
aa(lp10366
Vmesh
p10367
aI5185
aa(lp10368
Vfleeing
p10369
aI5186
aa(lp10370
Vpillsbury
p10371
aI5187
aa(lp10372
Vmid-air
p10373
aI5188
aa(lp10374
Vcheesy
p10375
aI5189
aa(lp10376
Vparticipated
p10377
aI5190
aa(lp10378
Vbroadcast
p10379
aI5191
aa(lp10380
Veyed
p10381
aI5192
aa(lp10382
Vingedients
p10383
aI5193
aa(lp10384
V13
p10385
aI5194
aa(lp10386
Vgigantic
p10387
aI5195
aa(lp10388
Vstrolls
p10389
aI5196
aa(lp10390
Vvoices
p10391
aI5197
aa(lp10392
Vdash
p10393
aI5198
aa(lp10394
Vkick-boxing
p10395
aI5199
aa(lp10396
Vkevin
p10397
aI5200
aa(lp10398
Vhooded
p10399
aI5201
aa(lp10400
Vanswering
p10401
aI5202
aa(lp10402
Vsquad
p10403
aI5203
aa(lp10404
V200
p10405
aI5204
aa(lp10406
Vtheatre
p10407
aI5205
aa(lp10408
Vpaid
p10409
aI5206
aa(lp10410
Vtugging
p10411
aI5207
aa(lp10412
Vsurprising
p10413
aI5208
aa(lp10414
Vtakig
p10415
aI5209
aa(lp10416
Vcurled
p10417
aI5210
aa(lp10418
Vgrittle
p10419
aI5211
aa(lp10420
Vstomp
p10421
aI5212
aa(lp10422
Vnearly
p10423
aI5213
aa(lp10424
Vgel
p10425
aI5214
aa(lp10426
Vsideway
p10427
aI5215
aa(lp10428
Vback-flip
p10429
aI5216
aa(lp10430
Vfinishing
p10431
aI5217
aa(lp10432
Vpebbly
p10433
aI5218
aa(lp10434
Vsludge
p10435
aI5219
aa(lp10436
Vcathes
p10437
aI5220
aa(lp10438
Vseal
p10439
aI5221
aa(lp10440
Vpuma
p10441
aI5222
aa(lp10442
Vswoard
p10443
aI5223
aa(lp10444
Vornament
p10445
aI5224
aa(lp10446
Vforecast
p10447
aI5225
aa(lp10448
Vpump
p10449
aI5226
aa(lp10450
Vgeometric
p10451
aI5227
aa(lp10452
Vsunbather
p10453
aI5228
aa(lp10454
Vdates
p10455
aI5229
aa(lp10456
Vaccording
p10457
aI5230
aa(lp10458
Vsomewhere
p10459
aI5231
aa(lp10460
Vhesitantly
p10461
aI5232
aa(lp10462
Vcanced
p10463
aI5233
aa(lp10464
Vtabel
p10465
aI5234
aa(lp10466
Vundershirt
p10467
aI5235
aa(lp10468
Vdisembarks
p10469
aI5236
aa(lp10470
Voffered
p10471
aI5237
aa(lp10472
Vhelcopters
p10473
aI5238
aa(lp10474
Vromping
p10475
aI5239
aa(lp10476
Vslapping
p10477
aI5240
aa(lp10478
Vbathi
p10479
aI5241
aa(lp10480
Vloosing
p10481
aI5242
aa(lp10482
Vreceptacle
p10483
aI5243
aa(lp10484
Vassist
p10485
aI5244
aa(lp10486
Vlayup
p10487
aI5245
aa(lp10488
Vchoppoing
p10489
aI5246
aa(lp10490
Vbumping
p10491
aI5247
aa(lp10492
Vcameramen
p10493
aI5248
aa(lp10494
Vadjustments
p10495
aI5249
aa(lp10496
Vforecasting
p10497
aI5250
aa(lp10498
Vpissing
p10499
aI5251
aa(lp10500
Vguniea
p10501
aI5252
aa(lp10502
Vtiming/temperature
p10503
aI5253
aa(lp10504
Vpups
p10505
aI5254
aa(lp10506
Vcayenne
p10507
aI5255
aa(lp10508
Vcrocodiles
p10509
aI5256
aa(lp10510
Vgrip
p10511
aI5257
aa(lp10512
Vschwarzenegger
p10513
aI5258
aa(lp10514
Vgrid
p10515
aI5259
aa(lp10516
Vgrin
p10517
aI5260
aa(lp10518
Vstsnd
p10519
aI5261
aa(lp10520
Valternated
p10521
aI5262
aa(lp10522
Vimages
p10523
aI5263
aa(lp10524
Vorganizing
p10525
aI5264
aa(lp10526
Vstew-like
p10527
aI5265
aa(lp10528
Vseeding
p10529
aI5266
aa(lp10530
Vexpressing
p10531
aI5267
aa(lp10532
Vairways
p10533
aI5268
aa(lp10534
Vroaming
p10535
aI5269
aa(lp10536
Vaide
p10537
aI5270
aa(lp10538
Vstylish
p10539
aI5271
aa(lp10540
Visland
p10541
aI5272
aa(lp10542
Vlifing
p10543
aI5273
aa(lp10544
Vliquior
p10545
aI5274
aa(lp10546
Vroam
p10547
aI5275
aa(lp10548
Vcoupon
p10549
aI5276
aa(lp10550
Vimitates
p10551
aI5277
aa(lp10552
Vdowned
p10553
aI5278
aa(lp10554
Vdistracted
p10555
aI5279
aa(lp10556
Venough
p10557
aI5280
aa(lp10558
Vshrugs
p10559
aI5281
aa(lp10560
Vbunnys
p10561
aI5282
aa(lp10562
Vstrawberry
p10563
aI5283
aa(lp10564
Vjabbing
p10565
aI5284
aa(lp10566
Vvideos
p10567
aI5285
aa(lp10568
Vacetate
p10569
aI5286
aa(lp10570
Vfilm
p10571
aI5287
aa(lp10572
Vfill
p10573
aI5288
aa(lp10574
Vhybrid
p10575
aI5289
aa(lp10576
Voutfield
p10577
aI5290
aa(lp10578
Vsprints
p10579
aI5291
aa(lp10580
Vdecorates
p10581
aI5292
aa(lp10582
Vchris
p10583
aI5293
aa(lp10584
Vwets
p10585
aI5294
aa(lp10586
Vhaired
p10587
aI5295
aa(lp10588
Vdisassembled
p10589
aI5296
aa(lp10590
Vexpressions
p10591
aI5297
aa(lp10592
Vpreserves
p10593
aI5298
aa(lp10594
Vfoured
p10595
aI5299
aa(lp10596
Vpuffs
p10597
aI5300
aa(lp10598
Vhitchhikes
p10599
aI5301
aa(lp10600
Vrambunctious
p10601
aI5302
aa(lp10602
Vpurrs
p10603
aI5303
aa(lp10604
Vmarinading
p10605
aI5304
aa(lp10606
Vknifes
p10607
aI5305
aa(lp10608
Vburger
p10609
aI5306
aa(lp10610
Vvideogame
p10611
aI5307
aa(lp10612
Vaffectionately
p10613
aI5308
aa(lp10614
Vinvestigating
p10615
aI5309
aa(lp10616
Vgorrilla
p10617
aI5310
aa(lp10618
Vantagonizing
p10619
aI5311
aa(lp10620
Vlasagna
p10621
aI5312
aa(lp10622
Vmilky
p10623
aI5313
aa(lp10624
V9mm
p10625
aI5314
aa(lp10626
Vskids
p10627
aI5315
aa(lp10628
Vmedics
p10629
aI5316
aa(lp10630
Vtransit
p10631
aI5317
aa(lp10632
Vcomparing
p10633
aI5318
aa(lp10634
Vstaggering
p10635
aI5319
aa(lp10636
Vparticular
p10637
aI5320
aa(lp10638
Vpatrols
p10639
aI5321
aa(lp10640
Vsudden
p10641
aI5322
aa(lp10642
Vded
p10643
aI5323
aa(lp10644
Vpurchases
p10645
aI5324
aa(lp10646
Vmargerine
p10647
aI5325
aa(lp10648
Vshare
p10649
aI5326
aa(lp10650
Vrainstorm
p10651
aI5327
aa(lp10652
Vdrained
p10653
aI5328
aa(lp10654
Vshanked
p10655
aI5329
aa(lp10656
Vcomfort
p10657
aI5330
aa(lp10658
Vunharmed
p10659
aI5331
aa(lp10660
Vsacred
p10661
aI5332
aa(lp10662
Vfrilly
p10663
aI5333
aa(lp10664
Vresponse
p10665
aI5334
aa(lp10666
Vbathed
p10667
aI5335
aa(lp10668
Vupholstered
p10669
aI5336
aa(lp10670
Vjalapeo
p10671
aI5337
aa(lp10672
Vindustrial
p10673
aI5338
aa(lp10674
Vmessed
p10675
aI5339
aa(lp10676
Vyamaimo
p10677
aI5340
aa(lp10678
Vpent
p10679
aI5341
aa(lp10680
V22
p10681
aI5342
aa(lp10682
Vsodium
p10683
aI5343
aa(lp10684
Vpyrex
p10685
aI5344
aa(lp10686
Vhandheld
p10687
aI5345
aa(lp10688
Vhurting
p10689
aI5346
aa(lp10690
Vmales
p10691
aI5347
aa(lp10692
Vwalls
p10693
aI5348
aa(lp10694
Veasily
p10695
aI5349
aa(lp10696
Vevade
p10697
aI5350
aa(lp10698
Vmicro
p10699
aI5351
aa(lp10700
Vrepeating
p10701
aI5352
aa(lp10702
Vclamp
p10703
aI5353
aa(lp10704
Vwiggling
p10705
aI5354
aa(lp10706
Vextended
p10707
aI5355
aa(lp10708
Vcomic
p10709
aI5356
aa(lp10710
Vdejectedly
p10711
aI5357
aa(lp10712
Vcyclone
p10713
aI5358
aa(lp10714
Vdribbled
p10715
aI5359
aa(lp10716
Vbenefits
p10717
aI5360
aa(lp10718
Vdone
p10719
aI5361
aa(lp10720
Vrazor
p10721
aI5362
aa(lp10722
Vpaino
p10723
aI5363
aa(lp10724
Vleast
p10725
aI5364
aa(lp10726
Vhollows
p10727
aI5365
aa(lp10728
Vmama
p10729
aI5366
aa(lp10730
Vbegetables
p10731
aI5367
aa(lp10732
Vmuscles
p10733
aI5368
aa(lp10734
Vstire
p10735
aI5369
aa(lp10736
Vtom
p10737
aI5370
aa(lp10738
Vbelieve
p10739
aI5371
aa(lp10740
Vcolander
p10741
aI5372
aa(lp10742
Vtreated
p10743
aI5373
aa(lp10744
Vdeclare
p10745
aI5374
aa(lp10746
Vcreases
p10747
aI5375
aa(lp10748
Vtrudges
p10749
aI5376
aa(lp10750
Vmost
p10751
aI5377
aa(lp10752
Vtri-cycle
p10753
aI5378
aa(lp10754
Voots
p10755
aI5379
aa(lp10756
Vsparrow
p10757
aI5380
aa(lp10758
Vwailing
p10759
aI5381
aa(lp10760
Vcrocheted
p10761
aI5382
aa(lp10762
Vhopped
p10763
aI5383
aa(lp10764
Vlegionnaire
p10765
aI5384
aa(lp10766
Vtownspeople
p10767
aI5385
aa(lp10768
Vtouchscreen
p10769
aI5386
aa(lp10770
Vexpress
p10771
aI5387
aa(lp10772
Vsill
p10773
aI5388
aa(lp10774
Vmerchandise
p10775
aI5389
aa(lp10776
Vmotorcycles
p10777
aI5390
aa(lp10778
Vhalved
p10779
aI5391
aa(lp10780
Vvisiting
p10781
aI5392
aa(lp10782
Vsmallest
p10783
aI5393
aa(lp10784
Venvelopes
p10785
aI5394
aa(lp10786
Vvolleys
p10787
aI5395
aa(lp10788
Vpagoda
p10789
aI5396
aa(lp10790
Vcubed
p10791
aI5397
aa(lp10792
Vnewsdesk
p10793
aI5398
aa(lp10794
Vrag
p10795
aI5399
aa(lp10796
Vrecycling
p10797
aI5400
aa(lp10798
Vpanicking
p10799
aI5401
aa(lp10800
Vbongs
p10801
aI5402
aa(lp10802
Vmikes
p10803
aI5403
aa(lp10804
Vchiseled
p10805
aI5404
aa(lp10806
Vassorted
p10807
aI5405
aa(lp10808
Vkathe
p10809
aI5406
aa(lp10810
Vbill
p10811
aI5407
aa(lp10812
Vskiff
p10813
aI5408
aa(lp10814
Vfun
p10815
aI5409
aa(lp10816
Vinfront
p10817
aI5410
aa(lp10818
Vviolently
p10819
aI5411
aa(lp10820
Vscrews
p10821
aI5412
aa(lp10822
Vfacade
p10823
aI5413
aa(lp10824
Vbutcher
p10825
aI5414
aa(lp10826
Vtupperware
p10827
aI5415
aa(lp10828
Vgilmour
p10829
aI5416
aa(lp10830
Vromps
p10831
aI5417
aa(lp10832
Vshaded
p10833
aI5418
aa(lp10834
Vflags
p10835
aI5419
aa(lp10836
Vcircling
p10837
aI5420
aa(lp10838
Vshouting
p10839
aI5421
aa(lp10840
Vcue
p10841
aI5422
aa(lp10842
Veaster
p10843
aI5423
aa(lp10844
Vexcited
p10845
aI5424
aa(lp10846
Vbin
p10847
aI5425
aa(lp10848
Vcompetitively
p10849
aI5426
aa(lp10850
Vknock
p10851
aI5427
aa(lp10852
Vflue
p10853
aI5428
aa(lp10854
Vhelicopter-toy
p10855
aI5429
aa(lp10856
Vknawing
p10857
aI5430
aa(lp10858
Vpelt
p10859
aI5431
aa(lp10860
V\u0938\u0947
p10861
aI5432
aa(lp10862
Vceremonisl
p10863
aI5433
aa(lp10864
Vpea
p10865
aI5434
aa(lp10866
Vlounged
p10867
aI5435
aa(lp10868
Vricearoni
p10869
aI5436
aa(lp10870
Vlounges
p10871
aI5437
aa(lp10872
Viceskates
p10873
aI5438
aa(lp10874
Vpiles
p10875
aI5439
aa(lp10876
Voatmeal
p10877
aI5440
aa(lp10878
Vdrama
p10879
aI5441
aa(lp10880
Vharassed
p10881
aI5442
aa(lp10882
Vframed
p10883
aI5443
aa(lp10884
Vsoaping
p10885
aI5444
aa(lp10886
Vlesson
p10887
aI5445
aa(lp10888
Vtortila/
p10889
aI5446
aa(lp10890
Vtree-lined
p10891
aI5447
aa(lp10892
Vgriddle-like
p10893
aI5448
aa(lp10894
Vplanes
p10895
aI5449
aa(lp10896
Vjumbo
p10897
aI5450
aa(lp10898
Vgroove
p10899
aI5451
aa(lp10900
Vrecognition
p10901
aI5452
aa(lp10902
Vgeese
p10903
aI5453
aa(lp10904
Vstripped
p10905
aI5454
aa(lp10906
Vspoonfull
p10907
aI5455
aa(lp10908
Vscurrying
p10909
aI5456
aa(lp10910
Vfiretruck
p10911
aI5457
aa(lp10912
Vroping
p10913
aI5458
aa(lp10914
Vpresenting
p10915
aI5459
aa(lp10916
Vdiscards
p10917
aI5460
aa(lp10918
Vbrinjals
p10919
aI5461
aa(lp10920
Voctopus-shaped
p10921
aI5462
aa(lp10922
Vpeanut
p10923
aI5463
aa(lp10924
Vsaxaphone
p10925
aI5464
aa(lp10926
Vashore
p10927
aI5465
aa(lp10928
Vdessert
p10929
aI5466
aa(lp10930
Vannouncing
p10931
aI5467
aa(lp10932
Vchokariyo
p10933
aI5468
aa(lp10934
Vsquezzed
p10935
aI5469
aa(lp10936
Vanthem
p10937
aI5470
aa(lp10938
Vpaddle
p10939
aI5471
aa(lp10940
Vwiggles
p10941
aI5472
aa(lp10942
Vsharks
p10943
aI5473
aa(lp10944
Vexchange
p10945
aI5474
aa(lp10946
Varond
p10947
aI5475
aa(lp10948
Vtoughing
p10949
aI5476
aa(lp10950
Vstalks
p10951
aI5477
aa(lp10952
Vnames
p10953
aI5478
aa(lp10954
Vchi
p10955
aI5479
aa(lp10956
Vcut-out
p10957
aI5480
aa(lp10958
Vbutler
p10959
aI5481
aa(lp10960
Vcharcoal
p10961
aI5482
aa(lp10962
Vcostmetics
p10963
aI5483
aa(lp10964
Vbilled
p10965
aI5484
aa(lp10966
Vleattuce
p10967
aI5485
aa(lp10968
Vtunnel
p10969
aI5486
aa(lp10970
Vstations
p10971
aI5487
aa(lp10972
Vpedaled
p10973
aI5488
aa(lp10974
Vsnacks
p10975
aI5489
aa(lp10976
Vsanding
p10977
aI5490
aa(lp10978
Vluggag
p10979
aI5491
aa(lp10980
Vexclaims
p10981
aI5492
aa(lp10982
Vnative
p10983
aI5493
aa(lp10984
Vlamp
p10985
aI5494
aa(lp10986
Vsnipping
p10987
aI5495
aa(lp10988
Vprofile
p10989
aI5496
aa(lp10990
Vjeroba
p10991
aI5497
aa(lp10992
Vtressel
p10993
aI5498
aa(lp10994
Vterrier
p10995
aI5499
aa(lp10996
Vutility-like
p10997
aI5500
aa(lp10998
Vrices
p10999
aI5501
aa(lp11000
Vmeter
p11001
aI5502
aa(lp11002
Vtoddled
p11003
aI5503
aa(lp11004
Vtwirls
p11005
aI5504
aa(lp11006
Vwinning
p11007
aI5505
aa(lp11008
Vinoculations
p11009
aI5506
aa(lp11010
Vpreschool
p11011
aI5507
aa(lp11012
Vstraddling
p11013
aI5508
aa(lp11014
Vslumped
p11015
aI5509
aa(lp11016
Vopining
p11017
aI5510
aa(lp11018
Vflushing
p11019
aI5511
aa(lp11020
Vwindsurfing
p11021
aI5512
aa(lp11022
Vstenographer
p11023
aI5513
aa(lp11024
Vsalami
p11025
aI5514
aa(lp11026
Vbarriers
p11027
aI5515
aa(lp11028
Vstaning
p11029
aI5516
aa(lp11030
Vteethes
p11031
aI5517
aa(lp11032
Vnut
p11033
aI5518
aa(lp11034
Vcabin
p11035
aI5519
aa(lp11036
Vfoamy
p11037
aI5520
aa(lp11038
Vroof-top
p11039
aI5521
aa(lp11040
Vlightening
p11041
aI5522
aa(lp11042
Vcurves
p11043
aI5523
aa(lp11044
Vpitiable
p11045
aI5524
aa(lp11046
Vmammals
p11047
aI5525
aa(lp11048
Vreciting
p11049
aI5526
aa(lp11050
Vcage-like
p11051
aI5527
aa(lp11052
Vyellowish-brown
p11053
aI5528
aa(lp11054
Vnicholson
p11055
aI5529
aa(lp11056
Vplanks
p11057
aI5530
aa(lp11058
Vdoughs
p11059
aI5531
aa(lp11060
Vsettee
p11061
aI5532
aa(lp11062
Vhamlet
p11063
aI5533
aa(lp11064
Vprancing
p11065
aI5534
aa(lp11066
Vdiscovers
p11067
aI5535
aa(lp11068
Vbeachgoers
p11069
aI5536
aa(lp11070
Vstripes
p11071
aI5537
aa(lp11072
Vstriped
p11073
aI5538
aa(lp11074
Vbath-tub
p11075
aI5539
aa(lp11076
Vexcretes
p11077
aI5540
aa(lp11078
Vcalling
p11079
aI5541
aa(lp11080
Vshelling
p11081
aI5542
aa(lp11082
Vgunman
p11083
aI5543
aa(lp11084
Vwalking-way
p11085
aI5544
aa(lp11086
Vnational
p11087
aI5545
aa(lp11088
Vclearing
p11089
aI5546
aa(lp11090
Vnudged
p11091
aI5547
aa(lp11092
Vdeliver
p11093
aI5548
aa(lp11094
Vnudges
p11095
aI5549
aa(lp11096
Vinstant
p11097
aI5550
aa(lp11098
Vequal
p11099
aI5551
aa(lp11100
Vtrips
p11101
aI5552
aa(lp11102
Vswallow
p11103
aI5553
aa(lp11104
Vka-bar
p11105
aI5554
aa(lp11106
Votherwise
p11107
aI5555
aa(lp11108
Vlaugh
p11109
aI5556
aa(lp11110
Vbespectacled
p11111
aI5557
aa(lp11112
Vantlers
p11113
aI5558
aa(lp11114
Vreceived
p11115
aI5559
aa(lp11116
Vpreforming
p11117
aI5560
aa(lp11118
Vangles
p11119
aI5561
aa(lp11120
Vbulb
p11121
aI5562
aa(lp11122
Vsquid
p11123
aI5563
aa(lp11124
Varabic
p11125
aI5564
aa(lp11126
Vsequentially
p11127
aI5565
aa(lp11128
Vfacet
p11129
aI5566
aa(lp11130
Vshreded
p11131
aI5567
aa(lp11132
Vpowerboat
p11133
aI5568
aa(lp11134
Vkidnapping
p11135
aI5569
aa(lp11136
Voranges
p11137
aI5570
aa(lp11138
Vinjures
p11139
aI5571
aa(lp11140
Vstraightness
p11141
aI5572
aa(lp11142
Vmuscle
p11143
aI5573
aa(lp11144
Vrestuarant
p11145
aI5574
aa(lp11146
Vdomestic
p11147
aI5575
aa(lp11148
Vprotecting
p11149
aI5576
aa(lp11150
Vterrorizes
p11151
aI5577
aa(lp11152
Vbarbed-wire
p11153
aI5578
aa(lp11154
Vnewsstand
p11155
aI5579
aa(lp11156
Vhousekeeper
p11157
aI5580
aa(lp11158
Vjournalist
p11159
aI5581
aa(lp11160
Vchick
p11161
aI5582
aa(lp11162
Vpropel
p11163
aI5583
aa(lp11164
Vscurried
p11165
aI5584
aa(lp11166
Vstuffs
p11167
aI5585
aa(lp11168
Vproper
p11169
aI5586
aa(lp11170
Vshrub
p11171
aI5587
aa(lp11172
Vflowerette
p11173
aI5588
aa(lp11174
Vmasked
p11175
aI5589
aa(lp11176
Vspeak
p11177
aI5590
aa(lp11178
Vpetty
p11179
aI5591
aa(lp11180
Vperiodically
p11181
aI5592
aa(lp11182
Vpanel
p11183
aI5593
aa(lp11184
Vbreak-danced
p11185
aI5594
aa(lp11186
Vintroduces
p11187
aI5595
aa(lp11188
Vshiitake
p11189
aI5596
aa(lp11190
Vdunked
p11191
aI5597
aa(lp11192
Vvoilin
p11193
aI5598
aa(lp11194
V\u0939\u0948
p11195
aI5599
aa(lp11196
Velastic
p11197
aI5600
aa(lp11198
Vrushes
p11199
aI5601
aa(lp11200
Vbum
p11201
aI5602
aa(lp11202
Vbookshelf
p11203
aI5603
aa(lp11204
Vfire-fox
p11205
aI5604
aa(lp11206
Vsquat
p11207
aI5605
aa(lp11208
Vtortila
p11209
aI5606
aa(lp11210
Vtopless
p11211
aI5607
aa(lp11212
Vwide-eyed
p11213
aI5608
aa(lp11214
Vproceeds
p11215
aI5609
aa(lp11216
V45
p11217
aI5610
aa(lp11218
Vspecial
p11219
aI5611
aa(lp11220
Vhiker
p11221
aI5612
aa(lp11222
Vevery
p11223
aI5613
aa(lp11224
Vconfetti
p11225
aI5614
aa(lp11226
Vguiding
p11227
aI5615
aa(lp11228
Venjoy
p11229
aI5616
aa(lp11230
Vthrought
p11231
aI5617
aa(lp11232
Vwater-pot
p11233
aI5618
aa(lp11234
Vsurrounding
p11235
aI5619
aa(lp11236
Vshining
p11237
aI5620
aa(lp11238
Vliberty
p11239
aI5621
aa(lp11240
Vgreating
p11241
aI5622
aa(lp11242
Vconduct
p11243
aI5623
aa(lp11244
Vinjections
p11245
aI5624
aa(lp11246
Ventertains
p11247
aI5625
aa(lp11248
Vhundreds
p11249
aI5626
aa(lp11250
Vmozzarella
p11251
aI5627
aa(lp11252
Vmidway
p11253
aI5628
aa(lp11254
Vmeats
p11255
aI5629
aa(lp11256
Vpuled
p11257
aI5630
aa(lp11258
Vspiky
p11259
aI5631
aa(lp11260
Vbcycle
p11261
aI5632
aa(lp11262
Vmush
p11263
aI5633
aa(lp11264
Vconnecticut
p11265
aI5634
aa(lp11266
Vpouch
p11267
aI5635
aa(lp11268
Vshetty
p11269
aI5636
aa(lp11270
Vmarsupial
p11271
aI5637
aa(lp11272
Vma
p11273
aI5638
aa(lp11274
Vmt
p11275
aI5639
aa(lp11276
Vdecorative
p11277
aI5640
aa(lp11278
Vgadgets
p11279
aI5641
aa(lp11280
Vmas-arum
p11281
aI5642
aa(lp11282
Vrhinoceros
p11283
aI5643
aa(lp11284
Vrawing
p11285
aI5644
aa(lp11286
Vkebabs
p11287
aI5645
aa(lp11288
Vpokes
p11289
aI5646
aa(lp11290
Vlump
p11291
aI5647
aa(lp11292
Vtidying
p11293
aI5648
aa(lp11294
Vparallel
p11295
aI5649
aa(lp11296
Vgirders
p11297
aI5650
aa(lp11298
Venter
p11299
aI5651
aa(lp11300
Vvapor
p11301
aI5652
aa(lp11302
Vunsteady
p11303
aI5653
aa(lp11304
Vclench
p11305
aI5654
aa(lp11306
V\u201cyes
p11307
aI5655
aa(lp11308
Vkickboxes
p11309
aI5656
aa(lp11310
Vtourist
p11311
aI5657
aa(lp11312
Vprevented
p11313
aI5658
aa(lp11314
Vpinkish
p11315
aI5659
aa(lp11316
Vcelebrating
p11317
aI5660
aa(lp11318
Vrefriderator
p11319
aI5661
aa(lp11320
Vgoo
p11321
aI5662
aa(lp11322
Vstunting
p11323
aI5663
aa(lp11324
Vgod
p11325
aI5664
aa(lp11326
Vstringer
p11327
aI5665
aa(lp11328
Vinot
p11329
aI5666
aa(lp11330
Vscopes
p11331
aI5667
aa(lp11332
Vcarcass
p11333
aI5668
aa(lp11334
Vchisels
p11335
aI5669
aa(lp11336
Vformation
p11337
aI5670
aa(lp11338
Vacrobat
p11339
aI5671
aa(lp11340
Voutfits
p11341
aI5672
aa(lp11342
Vrand
p11343
aI5673
aa(lp11344
Valready
p11345
aI5674
aa(lp11346
Vdiscotheque
p11347
aI5675
aa(lp11348
Vmotorcar
p11349
aI5676
aa(lp11350
Vweightlifting
p11351
aI5677
aa(lp11352
Vwestern
p11353
aI5678
aa(lp11354
Vnudging
p11355
aI5679
aa(lp11356
Vreclining
p11357
aI5680
aa(lp11358
Vroles
p11359
aI5681
aa(lp11360
Vclasses
p11361
aI5682
aa(lp11362
Vdonkey
p11363
aI5683
aa(lp11364
Vrae
p11365
aI5684
aa(lp11366
Vhuddling
p11367
aI5685
aa(lp11368
Vpompoms
p11369
aI5686
aa(lp11370
Vgranulated
p11371
aI5687
aa(lp11372
Vleafs
p11373
aI5688
aa(lp11374
Vriden
p11375
aI5689
aa(lp11376
Vfoil-lined
p11377
aI5690
aa(lp11378
Vthough
p11379
aI5691
aa(lp11380
Vtormenting
p11381
aI5692
aa(lp11382
Vtreats
p11383
aI5693
aa(lp11384
Vflop
p11385
aI5694
aa(lp11386
Vfreeway
p11387
aI5695
aa(lp11388
Vswerves
p11389
aI5696
aa(lp11390
Vlabels
p11391
aI5697
aa(lp11392
Vhousefly
p11393
aI5698
aa(lp11394
Vpopt
p11395
aI5699
aa(lp11396
Vpeasants
p11397
aI5700
aa(lp11398
Vcarbine
p11399
aI5701
aa(lp11400
Vexcitedly
p11401
aI5702
aa(lp11402
Vshutting
p11403
aI5703
aa(lp11404
Vboulon
p11405
aI5704
aa(lp11406
Vdisturbing
p11407
aI5705
aa(lp11408
Vslotted
p11409
aI5706
aa(lp11410
Vroto-tiller
p11411
aI5707
aa(lp11412
Vcontinually
p11413
aI5708
aa(lp11414
Vmug
p11415
aI5709
aa(lp11416
Vapproach
p11417
aI5710
aa(lp11418
Vsipper
p11419
aI5711
aa(lp11420
Vextracts
p11421
aI5712
aa(lp11422
Vsheff
p11423
aI5713
aa(lp11424
Vparticipating
p11425
aI5714
aa(lp11426
Vhysterically
p11427
aI5715
aa(lp11428
Vconference
p11429
aI5716
aa(lp11430
Vcurried
p11431
aI5717
aa(lp11432
Vcontainers
p11433
aI5718
aa(lp11434
Vaffixed
p11435
aI5719
aa(lp11436
Vcracker
p11437
aI5720
aa(lp11438
Vprocedure
p11439
aI5721
aa(lp11440
Vhandrail
p11441
aI5722
aa(lp11442
Vinteracts
p11443
aI5723
aa(lp11444
Vpreps
p11445
aI5724
aa(lp11446
Vcomplex
p11447
aI5725
aa(lp11448
Vgreeted
p11449
aI5726
aa(lp11450
Vhalf-moon
p11451
aI5727
aa(lp11452
Vdozing
p11453
aI5728
aa(lp11454
Vfistfight
p11455
aI5729
aa(lp11456
Vgretting
p11457
aI5730
aa(lp11458
Vslammed
p11459
aI5731
aa(lp11460
Vtransporting
p11461
aI5732
aa(lp11462
Vteenaged
p11463
aI5733
aa(lp11464
Vfistfighting
p11465
aI5734
aa(lp11466
Vturquoise
p11467
aI5735
aa(lp11468
Vbands
p11469
aI5736
aa(lp11470
Vdescending
p11471
aI5737
aa(lp11472
Vappearing
p11473
aI5738
aa(lp11474
Vsuper-wide
p11475
aI5739
aa(lp11476
Vplaer
p11477
aI5740
aa(lp11478
Vmeters
p11479
aI5741
aa(lp11480
Vescape
p11481
aI5742
aa(lp11482
Vtutorial
p11483
aI5743
aa(lp11484
Vplantain
p11485
aI5744
aa(lp11486
Vpeguins
p11487
aI5745
aa(lp11488
Vbrawl
p11489
aI5746
aa(lp11490
Vwa7ter
p11491
aI5747
aa(lp11492
Vcoiled
p11493
aI5748
aa(lp11494
Vdials
p11495
aI5749
aa(lp11496
Vfurtado
p11497
aI5750
aa(lp11498
Vgil
p11499
aI5751
aa(lp11500
Vtree-trunk
p11501
aI5752
aa(lp11502
Vmedium
p11503
aI5753
aa(lp11504
Vblow-torching
p11505
aI5754
aa(lp11506
Vwobbles
p11507
aI5755
aa(lp11508
Vhitch-hike
p11509
aI5756
aa(lp11510
Vlatch
p11511
aI5757
aa(lp11512
Vcobbled
p11513
aI5758
aa(lp11514
Vswatted
p11515
aI5759
aa(lp11516
Vchuckling
p11517
aI5760
aa(lp11518
Vsqueals
p11519
aI5761
aa(lp11520
Vtriumphant
p11521
aI5762
aa(lp11522
Vvigorously
p11523
aI5763
aa(lp11524
Vspanked
p11525
aI5764
aa(lp11526
Vfasten
p11527
aI5765
aa(lp11528
Vmulti-serve
p11529
aI5766
aa(lp11530
Vfocus
p11531
aI5767
aa(lp11532
Venvironment
p11533
aI5768
aa(lp11534
Vcoos
p11535
aI5769
aa(lp11536
Vtrident
p11537
aI5770
aa(lp11538
Vsloppy
p11539
aI5771
aa(lp11540
Vbastng
p11541
aI5772
aa(lp11542
Vimpressive
p11543
aI5773
aa(lp11544
Vdrier
p11545
aI5774
aa(lp11546
Veights
p11547
aI5775
aa(lp11548
Vbake
p11549
aI5776
aa(lp11550
Vmachinthi
p11551
aI5777
aa(lp11552
Vhalf-naked
p11553
aI5778
aa(lp11554
Vtuxedo
p11555
aI5779
aa(lp11556
Vswallowed
p11557
aI5780
aa(lp11558
Vbulbs
p11559
aI5781
aa(lp11560
Vwicketkeeper
p11561
aI5782
aa(lp11562
Vbarbequed
p11563
aI5783
aa(lp11564
Vundersea
p11565
aI5784
aa(lp11566
Vands
p11567
aI5785
aa(lp11568
Vclicking
p11569
aI5786
aa(lp11570
Vemployee
p11571
aI5787
aa(lp11572
Vchocolaty
p11573
aI5788
aa(lp11574
Vedible
p11575
aI5789
aa(lp11576
Vaircrafts
p11577
aI5790
aa(lp11578
Vmodifies
p11579
aI5791
aa(lp11580
Vsemi-automatic
p11581
aI5792
aa(lp11582
Vrun-way
p11583
aI5793
aa(lp11584
Vrespective
p11585
aI5794
aa(lp11586
Vflattens
p11587
aI5795
aa(lp11588
Vbirthday
p11589
aI5796
aa(lp11590
Vreaper
p11591
aI5797
aa(lp11592
Vmotions
p11593
aI5798
aa(lp11594
Vfirring
p11595
aI5799
aa(lp11596
Vfarmer
p11597
aI5800
aa(lp11598
Vcling
p11599
aI5801
aa(lp11600
Vlorises
p11601
aI5802
aa(lp11602
Vwagon
p11603
aI5803
aa(lp11604
Vbusty
p11605
aI5804
aa(lp11606
Vsweet-potato
p11607
aI5805
aa(lp11608
Vrecycables
p11609
aI5806
aa(lp11610
Vpersian
p11611
aI5807
aa(lp11612
Vprocessed
p11613
aI5808
aa(lp11614
Vattended
p11615
aI5809
aa(lp11616
Vbolts
p11617
aI5810
aa(lp11618
Vmanikin
p11619
aI5811
aa(lp11620
Vroosters
p11621
aI5812
aa(lp11622
Vflare
p11623
aI5813
aa(lp11624
Vturf
p11625
aI5814
aa(lp11626
Vsaucers
p11627
aI5815
aa(lp11628
Vcreepily
p11629
aI5816
aa(lp11630
Vsomene
p11631
aI5817
aa(lp11632
Vvandalizing
p11633
aI5818
aa(lp11634
Vfetches
p11635
aI5819
aa(lp11636
Vwaterpark
p11637
aI5820
aa(lp11638
Vgiven
p11639
aI5821
aa(lp11640
Vmolded
p11641
aI5822
aa(lp11642
Vcooling
p11643
aI5823
aa(lp11644
Vcircl
p11645
aI5824
aa(lp11646
Vmasalo
p11647
aI5825
aa(lp11648
Vsix-pack
p11649
aI5826
aa(lp11650
Vreleases
p11651
aI5827
aa(lp11652
Vcubing
p11653
aI5828
aa(lp11654
Vcops
p11655
aI5829
aa(lp11656
Vcirculates
p11657
aI5830
aa(lp11658
Vholder
p11659
aI5831
aa(lp11660
Vanf
p11661
aI5832
aa(lp11662
Vregister
p11663
aI5833
aa(lp11664
Vskate-scooter
p11665
aI5834
aa(lp11666
Vant
p11667
aI5835
aa(lp11668
Vsells
p11669
aI5836
aa(lp11670
V\u201d
p11671
aI5837
aa(lp11672
Vroundish
p11673
aI5838
aa(lp11674
Vsure
p11675
aI5839
aa(lp11676
Vquantity
p11677
aI5840
aa(lp11678
Vrecipe
p11679
aI5841
aa(lp11680
Vspacey
p11681
aI5842
aa(lp11682
Vsuryanamaskar
p11683
aI5843
aa(lp11684
Vlighted
p11685
aI5844
aa(lp11686
Vhooting
p11687
aI5845
aa(lp11688
Vjazz
p11689
aI5846
aa(lp11690
Vbareback
p11691
aI5847
aa(lp11692
Vhedge
p11693
aI5848
aa(lp11694
Vreveal
p11695
aI5849
aa(lp11696
Vmewed
p11697
aI5850
aa(lp11698
Vinnards
p11699
aI5851
aa(lp11700
Vignores
p11701
aI5852
aa(lp11702
Vcollects
p11703
aI5853
aa(lp11704
Vrolercoaster
p11705
aI5854
aa(lp11706
Vways
p11707
aI5855
aa(lp11708
Vsungalsses
p11709
aI5856
aa(lp11710
Vlorie
p11711
aI5857
aa(lp11712
Vbunks
p11713
aI5858
aa(lp11714
Vhunched
p11715
aI5859
aa(lp11716
Vtrio
p11717
aI5860
aa(lp11718
Vpop
p11719
aI5861
aa(lp11720
Vpencilling
p11721
aI5862
aa(lp11722
Vblend
p11723
aI5863
aa(lp11724
Vcords
p11725
aI5864
aa(lp11726
Vschoolboy
p11727
aI5865
aa(lp11728
Vbreak-dance
p11729
aI5866
aa(lp11730
Vsquirrels
p11731
aI5867
aa(lp11732
Vslippery
p11733
aI5868
aa(lp11734
Vparatha
p11735
aI5869
aa(lp11736
Vagitates
p11737
aI5870
aa(lp11738
Vfender
p11739
aI5871
aa(lp11740
Vcoarsely
p11741
aI5872
aa(lp11742
Vshifts
p11743
aI5873
aa(lp11744
Vcatfish
p11745
aI5874
aa(lp11746
Visle
p11747
aI5875
aa(lp11748
Vaross
p11749
aI5876
aa(lp11750
Vweed
p11751
aI5877
aa(lp11752
Vcaressing
p11753
aI5878
aa(lp11754
Vrecital
p11755
aI5879
aa(lp11756
Vsculptors
p11757
aI5880
aa(lp11758
Vbodies
p11759
aI5881
aa(lp11760
Vclou
p11761
aI5882
aa(lp11762
Vannouncement
p11763
aI5883
aa(lp11764
Vwomans
p11765
aI5884
aa(lp11766
Vseems
p11767
aI5885
aa(lp11768
Vsamples
p11769
aI5886
aa(lp11770
Vengulfed
p11771
aI5887
aa(lp11772
Vstyled
p11773
aI5888
aa(lp11774
Vwrastle
p11775
aI5889
aa(lp11776
Vsternly
p11777
aI5890
aa(lp11778
Vsieved
p11779
aI5891
aa(lp11780
Vintact
p11781
aI5892
aa(lp11782
Vprovided
p11783
aI5893
aa(lp11784
Vprovides
p11785
aI5894
aa(lp11786
Vcommunicate
p11787
aI5895
aa(lp11788
Vpom-poms
p11789
aI5896
aa(lp11790
Voh
p11791
aI5897
aa(lp11792
Vox
p11793
aI5898
aa(lp11794
Vot
p11795
aI5899
aa(lp11796
Vknits
p11797
aI5900
aa(lp11798
Vgarb
p11799
aI5901
aa(lp11800
Vtiding
p11801
aI5902
aa(lp11802
Vrising
p11803
aI5903
aa(lp11804
Vfindertip
p11805
aI5904
aa(lp11806
Vstrongly
p11807
aI5905
aa(lp11808
Vpadling
p11809
aI5906
aa(lp11810
V5
p11811
aI5907
aa(lp11812
Vsymbol
p11813
aI5908
aa(lp11814
Vdashi
p11815
aI5909
aa(lp11816
Vserious
p11817
aI5910
aa(lp11818
Vcalls
p11819
aI5911
aa(lp11820
Vwife
p11821
aI5912
aa(lp11822
Vsongs
p11823
aI5913
aa(lp11824
Voff-road
p11825
aI5914
aa(lp11826
Vfollow
p11827
aI5915
aa(lp11828
Vbeaters
p11829
aI5916
aa(lp11830
Vparticipants
p11831
aI5917
aa(lp11832
Vdroppped
p11833
aI5918
aa(lp11834
Vgrinds
p11835
aI5919
aa(lp11836
Vprint
p11837
aI5920
aa(lp11838
Vtreating
p11839
aI5921
aa(lp11840
Vtriforce
p11841
aI5922
aa(lp11842
Vdesign
p11843
aI5923
aa(lp11844
Vmultitude
p11845
aI5924
aa(lp11846
Vscowling
p11847
aI5925
aa(lp11848
Vcondensed
p11849
aI5926
aa(lp11850
Vtoes
p11851
aI5927
aa(lp11852
Vhalf-eaten
p11853
aI5928
aa(lp11854
Vjati
p11855
aI5929
aa(lp11856
Vdirections
p11857
aI5930
aa(lp11858
Vsitring
p11859
aI5931
aa(lp11860
Vappliances
p11861
aI5932
aa(lp11862
Vshits
p11863
aI5933
aa(lp11864
Vflap
p11865
aI5934
aa(lp11866
Vstics
p11867
aI5935
aa(lp11868
Vtapioca
p11869
aI5936
aa(lp11870
Vwrestles
p11871
aI5937
aa(lp11872
Vpony
p11873
aI5938
aa(lp11874
Vsalted
p11875
aI5939
aa(lp11876
Vsectioned
p11877
aI5940
aa(lp11878
Vpond
p11879
aI5941
aa(lp11880
Vrather
p11881
aI5942
aa(lp11882
Vtinfoil
p11883
aI5943
aa(lp11884
Vsprinking
p11885
aI5944
aa(lp11886
Valgebra
p11887
aI5945
aa(lp11888
Vmarlon
p11889
aI5946
aa(lp11890
Vshade
p11891
aI5947
aa(lp11892
Vhandlebars
p11893
aI5948
aa(lp11894
Veludes
p11895
aI5949
aa(lp11896
Vsilencerco
p11897
aI5950
aa(lp11898
Vbout
p11899
aI5951
aa(lp11900
Vsomebody
p11901
aI5952
aa(lp11902
Vhunted
p11903
aI5953
aa(lp11904
Vreverent
p11905
aI5954
aa(lp11906
Vclmbing
p11907
aI5955
aa(lp11908
Vclandestine
p11909
aI5956
aa(lp11910
Vhealth
p11911
aI5957
aa(lp11912
Vcancy
p11913
aI5958
aa(lp11914
Vroofs
p11915
aI5959
aa(lp11916
Vthread
p11917
aI5960
aa(lp11918
Vrollerblades
p11919
aI5961
aa(lp11920
Vfrech
p11921
aI5962
aa(lp11922
Vlinking
p11923
aI5963
aa(lp11924
Vblank
p11925
aI5964
aa(lp11926
Vtraveler
p11927
aI5965
aa(lp11928
Vcake-cup
p11929
aI5966
aa(lp11930
Vgourmet
p11931
aI5967
aa(lp11932
Vsward
p11933
aI5968
aa(lp11934
Vvial
p11935
aI5969
aa(lp11936
Vstall
p11937
aI5970
aa(lp11938
Vuniforms
p11939
aI5971
aa(lp11940
Vbanjo
p11941
aI5972
aa(lp11942
Vpuffing
p11943
aI5973
aa(lp11944
Vnothing
p11945
aI5974
aa(lp11946
Vsoared
p11947
aI5975
aa(lp11948
Vwindows
p11949
aI5976
aa(lp11950
Vmimes
p11951
aI5977
aa(lp11952
Vhowls
p11953
aI5978
aa(lp11954
Vrocket
p11955
aI5979
aa(lp11956
Vfirewood
p11957
aI5980
aa(lp11958
Vsheppard
p11959
aI5981
aa(lp11960
Vgrazes
p11961
aI5982
aa(lp11962
Vhip
p11963
aI5983
aa(lp11964
Vshepherd
p11965
aI5984
aa(lp11966
Vgains
p11967
aI5985
aa(lp11968
Vnibbles
p11969
aI5986
aa(lp11970
Vbars
p11971
aI5987
aa(lp11972
Vparchment
p11973
aI5988
aa(lp11974
Vplywood
p11975
aI5989
aa(lp11976
Vorbiting
p11977
aI5990
aa(lp11978
Vrecently
p11979
aI5991
aa(lp11980
Vinset
p11981
aI5992
aa(lp11982
Vautomatice
p11983
aI5993
aa(lp11984
Vriddled
p11985
aI5994
aa(lp11986
Vsweep
p11987
aI5995
aa(lp11988
Vslots
p11989
aI5996
aa(lp11990
Vhoops
p11991
aI5997
aa(lp11992
Vpc
p11993
aI5998
aa(lp11994
Vvaguely
p11995
aI5999
aa(lp11996
Vmisbehaving
p11997
aI6000
aa(lp11998
Vinstructor
p11999
aI6001
aa(lp12000
Vplante
p12001
aI6002
aa(lp12002
Vezcrackers
p12003
aI6003
aa(lp12004
Vdemon
p12005
aI6004
aa(lp12006
Vcurrents
p12007
aI6005
aa(lp12008
Vparading
p12009
aI6006
aa(lp12010
Vgorlilla
p12011
aI6007
aa(lp12012
Vwierd
p12013
aI6008
aa(lp12014
Vkimono
p12015
aI6009
aa(lp12016
Vhigher
p12017
aI6010
aa(lp12018
Varrives
p12019
aI6011
aa(lp12020
Vfastens
p12021
aI6012
aa(lp12022
Vholidays
p12023
aI6013
aa(lp12024
Vriffle
p12025
aI6014
aa(lp12026
Vknot
p12027
aI6015
aa(lp12028
Vall-star
p12029
aI6016
aa(lp12030
Vquestions
p12031
aI6017
aa(lp12032
Vmargarine
p12033
aI6018
aa(lp12034
Vhumanoid
p12035
aI6019
aa(lp12036
Vspeedily
p12037
aI6020
aa(lp12038
Vpacifer
p12039
aI6021
aa(lp12040
Vawakes
p12041
aI6022
aa(lp12042
Vsprinklers
p12043
aI6023
aa(lp12044
Vforkful
p12045
aI6024
aa(lp12046
Vsauces
p12047
aI6025
aa(lp12048
Vgradually
p12049
aI6026
aa(lp12050
Vdrunkenly
p12051
aI6027
aa(lp12052
Vfragments
p12053
aI6028
aa(lp12054
Vcrawdads
p12055
aI6029
aa(lp12056
Vrefuses
p12057
aI6030
aa(lp12058
Vintense
p12059
aI6031
aa(lp12060
Vhousekeeping
p12061
aI6032
aa(lp12062
Vpuppie
p12063
aI6033
aa(lp12064
Vstitches
p12065
aI6034
aa(lp12066
Vrows
p12067
aI6035
aa(lp12068
Vfiles
p12069
aI6036
aa(lp12070
Vmountains
p12071
aI6037
aa(lp12072
Vupright
p12073
aI6038
aa(lp12074
Vpenguin
p12075
aI6039
aa(lp12076
Vdill
p12077
aI6040
aa(lp12078
Vhorse-rider
p12079
aI6041
aa(lp12080
Vpeach
p12081
aI6042
aa(lp12082
Vparlor
p12083
aI6043
aa(lp12084
Vgenerated
p12085
aI6044
aa(lp12086
Vwakeboarding
p12087
aI6045
aa(lp12088
Vwindy
p12089
aI6046
aa(lp12090
Vlanguages
p12091
aI6047
aa(lp12092
Vsnipes
p12093
aI6048
aa(lp12094
Vladle
p12095
aI6049
aa(lp12096
Vtutu
p12097
aI6050
aa(lp12098
Vposture
p12099
aI6051
aa(lp12100
Vnotes
p12101
aI6052
aa(lp12102
Vviolinists
p12103
aI6053
aa(lp12104
Vmotor-scooter
p12105
aI6054
aa(lp12106
Vgreen-board
p12107
aI6055
aa(lp12108
Vmanipulating
p12109
aI6056
aa(lp12110
Vdeboning
p12111
aI6057
aa(lp12112
Vammunition
p12113
aI6058
aa(lp12114
Vdividing
p12115
aI6059
aa(lp12116
Vevading
p12117
aI6060
aa(lp12118
Vnervous
p12119
aI6061
aa(lp12120
V\u0930\u0939\u093e
p12121
aI6062
aa(lp12122
Vapply
p12123
aI6063
aa(lp12124
Vpacketmathi
p12125
aI6064
aa(lp12126
Vusa
p12127
aI6065
aa(lp12128
Vdepicted
p12129
aI6066
aa(lp12130
Vweeping
p12131
aI6067
aa(lp12132
Vbitterly
p12133
aI6068
aa(lp12134
Vsort
p12135
aI6069
aa(lp12136
Vjournalists
p12137
aI6070
aa(lp12138
Vporuing
p12139
aI6071
aa(lp12140
Vr/c
p12141
aI6072
aa(lp12142
Vurad
p12143
aI6073
aa(lp12144
Vslaps
p12145
aI6074
aa(lp12146
Vrefigerator
p12147
aI6075
aa(lp12148
Vdusted
p12149
aI6076
aa(lp12150
Vnapkins
p12151
aI6077
aa(lp12152
Vdatebook
p12153
aI6078
aa(lp12154
Vpatrol
p12155
aI6079
aa(lp12156
Vtai
p12157
aI6080
aa(lp12158
Vsip
p12159
aI6081
aa(lp12160
Vinstead
p12161
aI6082
aa(lp12162
Vcuffed
p12163
aI6083
aa(lp12164
Vplucker
p12165
aI6084
aa(lp12166
Vzapped
p12167
aI6085
aa(lp12168
Vscrubs
p12169
aI6086
aa(lp12170
Vminnow
p12171
aI6087
aa(lp12172
Vquake
p12173
aI6088
aa(lp12174
Vonigiri
p12175
aI6089
aa(lp12176
Vchoose
p12177
aI6090
aa(lp12178
Vedging
p12179
aI6091
aa(lp12180
Vcitrus
p12181
aI6092
aa(lp12182
Vflee
p12183
aI6093
aa(lp12184
Vbilly
p12185
aI6094
aa(lp12186
Vouf
p12187
aI6095
aa(lp12188
Vmincemeat
p12189
aI6096
aa(lp12190
Vwhitish
p12191
aI6097
aa(lp12192
Vballroom
p12193
aI6098
aa(lp12194
Vparasailing
p12195
aI6099
aa(lp12196
Vipod
p12197
aI6100
aa(lp12198
Vpasting
p12199
aI6101
aa(lp12200
Vbonnet
p12201
aI6102
aa(lp12202
Vunknown
p12203
aI6103
aa(lp12204
Vinmate
p12205
aI6104
aa(lp12206
Vtheit
p12207
aI6105
aa(lp12208
Vdrool
p12209
aI6106
aa(lp12210
Vboil
p12211
aI6107
aa(lp12212
Vsimulate
p12213
aI6108
aa(lp12214
Vreverses
p12215
aI6109
aa(lp12216
Vpupplies
p12217
aI6110
aa(lp12218
Vscreeching
p12219
aI6111
aa(lp12220
Vpatients
p12221
aI6112
aa(lp12222
Vhairstyle
p12223
aI6113
aa(lp12224
Vshilpa
p12225
aI6114
aa(lp12226
Vfowl
p12227
aI6115
aa(lp12228
Vsips
p12229
aI6116
aa(lp12230
Vwathces
p12231
aI6117
aa(lp12232
Vbaseballs
p12233
aI6118
aa(lp12234
Vblanced
p12235
aI6119
aa(lp12236
Vvegetation
p12237
aI6120
aa(lp12238
Vclash
p12239
aI6121
aa(lp12240
Vpetrol
p12241
aI6122
aa(lp12242
Vric-a-roni
p12243
aI6123
aa(lp12244
Vmarinate
p12245
aI6124
aa(lp12246
Vfilmed
p12247
aI6125
aa(lp12248
Vcombs
p12249
aI6126
aa(lp12250
Vsurroundings
p12251
aI6127
aa(lp12252
Vthousands
p12253
aI6128
aa(lp12254
Vwatchint
p12255
aI6129
aa(lp12256
Vpresley
p12257
aI6130
aa(lp12258
Vburned
p12259
aI6131
aa(lp12260
Vwaterfalls
p12261
aI6132
aa(lp12262
Vviolen
p12263
aI6133
aa(lp12264
Vviolet
p12265
aI6134
aa(lp12266
Vmeatballs
p12267
aI6135
aa(lp12268
Vtargeted
p12269
aI6136
aa(lp12270
Vwetting
p12271
aI6137
aa(lp12272
Vbarbeque
p12273
aI6138
aa(lp12274
Vjoy
p12275
aI6139
aa(lp12276
Vjog
p12277
aI6140
aa(lp12278
Vcanopy
p12279
aI6141
aa(lp12280
Vcommando
p12281
aI6142
aa(lp12282
Vtrays
p12283
aI6143
aa(lp12284
Vshimp
p12285
aI6144
aa(lp12286
Vglock
p12287
aI6145
aa(lp12288
Vbike-man
p12289
aI6146
aa(lp12290
Vpainter
p12291
aI6147
aa(lp12292
Virate
p12293
aI6148
aa(lp12294
Vlauching
p12295
aI6149
aa(lp12296
Vesculator
p12297
aI6150
aa(lp12298
Velbows
p12299
aI6151
aa(lp12300
Vvaquero
p12301
aI6152
aa(lp12302
Vcoached
p12303
aI6153
aa(lp12304
Vcoaches
p12305
aI6154
aa(lp12306
Vwarming
p12307
aI6155
aa(lp12308
Vgutter
p12309
aI6156
aa(lp12310
Vplowed
p12311
aI6157
aa(lp12312
Vtussled
p12313
aI6158
aa(lp12314
Vrapid
p12315
aI6159
aa(lp12316
Vnicks
p12317
aI6160
aa(lp12318
Vmorbidly
p12319
aI6161
aa(lp12320
Vhitchhike
p12321
aI6162
aa(lp12322
Vdisrupting
p12323
aI6163
aa(lp12324
Vlead
p12325
aI6164
aa(lp12326
Vleader
p12327
aI6165
aa(lp12328
Vdevil
p12329
aI6166
aa(lp12330
Vbiscuit
p12331
aI6167
aa(lp12332
Vshipping
p12333
aI6168
aa(lp12334
Vstep-ups
p12335
aI6169
aa(lp12336
Vwilderness
p12337
aI6170
aa(lp12338
Vtravelers
p12339
aI6171
aa(lp12340
Vweighted
p12341
aI6172
aa(lp12342
Vregistration
p12343
aI6173
aa(lp12344
Vtransfer
p12345
aI6174
aa(lp12346
Vovertime
p12347
aI6175
aa(lp12348
Vsitiing
p12349
aI6176
aa(lp12350
Vpowdered
p12351
aI6177
aa(lp12352
Vupwards
p12353
aI6178
aa(lp12354
Vspanks
p12355
aI6179
aa(lp12356
Vquails
p12357
aI6180
aa(lp12358
Vcomplaint
p12359
aI6181
aa(lp12360
Vflounders
p12361
aI6182
aa(lp12362
Venlosed
p12363
aI6183
aa(lp12364
Vwaterskiing
p12365
aI6184
aa(lp12366
Vsmears
p12367
aI6185
aa(lp12368
Vroars
p12369
aI6186
aa(lp12370
Vbrance
p12371
aI6187
aa(lp12372
Vjetski
p12373
aI6188
aa(lp12374
Vsandwhich
p12375
aI6189
aa(lp12376
Vtoasts
p12377
aI6190
aa(lp12378
Vranks
p12379
aI6191
aa(lp12380
Vhardboiled
p12381
aI6192
aa(lp12382
S'<pad>'
p12383
aI0
aa(lp12384
S'<bos>'
p12385
aI1
aa(lp12386
S'<eos>'
p12387
aI2
aatp12388
Rp12389
.